ARM GAS  C:\Users\joel\AppData\Local\Temp\ccu8lQ08.s 			page 1


   1              		.syntax unified
   2              		.cpu cortex-m3
   3              		.fpu softvfp
   4              		.eabi_attribute 20, 1
   5              		.eabi_attribute 21, 1
   6              		.eabi_attribute 23, 3
   7              		.eabi_attribute 24, 1
   8              		.eabi_attribute 25, 1
   9              		.eabi_attribute 26, 1
  10              		.eabi_attribute 30, 6
  11              		.eabi_attribute 34, 1
  12              		.eabi_attribute 18, 4
  13              		.thumb
  14              		.file	"gdisp_lld_ILI9341.c"
  15              		.text
  16              	.Ltext0:
  17              		.cfi_sections	.debug_frame
  18              		.global	GDISPVMT_OnlyOne
  19              		.section	.rodata
  20              		.align	2
  21              		.type	GDISPVMT_OnlyOne, %object
  22              		.size	GDISPVMT_OnlyOne, 96
  23              	GDISPVMT_OnlyOne:
  24 0000 6700     		.short	103
  25 0002 0000     		.short	0
  26 0004 50000000 		.word	80
  27 0008 00000000 		.word	_gdispInitDriver
  28 000c 00000000 		.word	_gdispPostInitDriver
  29 0010 00000000 		.word	_gdispDeInitDriver
  30 0014 00000000 		.word	gdisp_lld_init
  31 0018 00000000 		.word	0
  32 001c 00000000 		.word	gdisp_lld_write_start
  33 0020 00000000 		.word	0
  34 0024 00000000 		.word	gdisp_lld_write_color
  35 0028 00000000 		.word	gdisp_lld_write_stop
  36 002c 00000000 		.word	gdisp_lld_read_start
  37 0030 00000000 		.word	gdisp_lld_read_color
  38 0034 00000000 		.word	gdisp_lld_read_stop
  39 0038 00000000 		.word	0
  40 003c 00000000 		.word	0
  41 0040 00000000 		.word	0
  42 0044 00000000 		.word	0
  43 0048 00000000 		.word	0
  44 004c 00000000 		.word	0
  45 0050 00000000 		.word	gdisp_lld_control
  46 0054 00000000 		.word	0
  47 0058 00000000 		.word	0
  48 005c 00000000 		.word	0
  49              		.section	.text.init_board,"ax",%progbits
  50              		.align	2
  51              		.thumb
  52              		.thumb_func
  53              		.type	init_board, %function
  54              	init_board:
  55              	.LFB63:
  56              		.file 1 "./board_ILI9341.h"
   1:./board_ILI9341.h **** /*
ARM GAS  C:\Users\joel\AppData\Local\Temp\ccu8lQ08.s 			page 2


   2:./board_ILI9341.h ****  * This file is subject to the terms of the GFX License. If a copy of
   3:./board_ILI9341.h ****  * the license was not distributed with this file, you can obtain one at:
   4:./board_ILI9341.h ****  *
   5:./board_ILI9341.h ****  *              http://ugfx.org/license.html
   6:./board_ILI9341.h ****  */
   7:./board_ILI9341.h **** 
   8:./board_ILI9341.h **** /*
   9:./board_ILI9341.h ****  * This board file uses the SPIM block of the PSoC 5LP platform to
  10:./board_ILI9341.h ****  * interface an ILI9341 display via SPI.
  11:./board_ILI9341.h ****  * The SPIM block requires the following configuration:
  12:./board_ILI9341.h ****  *    + Data bits = 8
  13:./board_ILI9341.h ****  *    + CPHA = 0
  14:./board_ILI9341.h ****  *    + CPOL = 0
  15:./board_ILI9341.h ****  *    + Shift direction = MSB first
  16:./board_ILI9341.h ****  *    + Enable high-speed mode = true
  17:./board_ILI9341.h ****  */
  18:./board_ILI9341.h **** 
  19:./board_ILI9341.h **** #ifndef _GDISP_LLD_BOARD_H
  20:./board_ILI9341.h **** #define _GDISP_LLD_BOARD_H
  21:./board_ILI9341.h ****     
  22:./board_ILI9341.h **** #include <device.h>
  23:./board_ILI9341.h **** 
  24:./board_ILI9341.h **** static GFXINLINE void init_board(GDisplay* g)
  25:./board_ILI9341.h **** {
  57              		.loc 1 25 0
  58              		.cfi_startproc
  59              		@ args = 0, pretend = 0, frame = 8
  60              		@ frame_needed = 1, uses_anonymous_args = 0
  61 0000 80B5     		push	{r7, lr}
  62              		.cfi_def_cfa_offset 8
  63              		.cfi_offset 7, -8
  64              		.cfi_offset 14, -4
  65 0002 82B0     		sub	sp, sp, #8
  66              		.cfi_def_cfa_offset 16
  67 0004 00AF     		add	r7, sp, #0
  68              		.cfi_def_cfa_register 7
  69 0006 7860     		str	r0, [r7, #4]
  26:./board_ILI9341.h ****     // We are not using multiple displays
  27:./board_ILI9341.h ****     g->board = 0;
  70              		.loc 1 27 0
  71 0008 7B68     		ldr	r3, [r7, #4]
  72 000a 0022     		movs	r2, #0
  73 000c 9A61     		str	r2, [r3, #24]
  28:./board_ILI9341.h **** 
  29:./board_ILI9341.h ****     // SPI
  30:./board_ILI9341.h ****     LCD_SPI_Init();
  74              		.loc 1 30 0
  75 000e FFF7FEFF 		bl	LCD_SPI_Init
  31:./board_ILI9341.h ****     LCD_SPI_Enable(); 
  76              		.loc 1 31 0
  77 0012 FFF7FEFF 		bl	LCD_SPI_Enable
  32:./board_ILI9341.h ****     LCD_SPI_Start();
  78              		.loc 1 32 0
  79 0016 FFF7FEFF 		bl	LCD_SPI_Start
  33:./board_ILI9341.h **** }
  80              		.loc 1 33 0
  81 001a 0837     		adds	r7, r7, #8
ARM GAS  C:\Users\joel\AppData\Local\Temp\ccu8lQ08.s 			page 3


  82              		.cfi_def_cfa_offset 8
  83 001c BD46     		mov	sp, r7
  84              		.cfi_def_cfa_register 13
  85              		@ sp needed
  86 001e 80BD     		pop	{r7, pc}
  87              		.cfi_endproc
  88              	.LFE63:
  89              		.size	init_board, .-init_board
  90              		.section	.text.post_init_board,"ax",%progbits
  91              		.align	2
  92              		.thumb
  93              		.thumb_func
  94              		.type	post_init_board, %function
  95              	post_init_board:
  96              	.LFB64:
  34:./board_ILI9341.h **** 
  35:./board_ILI9341.h **** static GFXINLINE void post_init_board(GDisplay* g)
  36:./board_ILI9341.h **** {
  97              		.loc 1 36 0
  98              		.cfi_startproc
  99              		@ args = 0, pretend = 0, frame = 8
 100              		@ frame_needed = 1, uses_anonymous_args = 0
 101              		@ link register save eliminated.
 102 0000 80B4     		push	{r7}
 103              		.cfi_def_cfa_offset 4
 104              		.cfi_offset 7, -4
 105 0002 83B0     		sub	sp, sp, #12
 106              		.cfi_def_cfa_offset 16
 107 0004 00AF     		add	r7, sp, #0
 108              		.cfi_def_cfa_register 7
 109 0006 7860     		str	r0, [r7, #4]
  37:./board_ILI9341.h **** 	(void)g;
  38:./board_ILI9341.h **** }
 110              		.loc 1 38 0
 111 0008 0C37     		adds	r7, r7, #12
 112              		.cfi_def_cfa_offset 4
 113 000a BD46     		mov	sp, r7
 114              		.cfi_def_cfa_register 13
 115              		@ sp needed
 116 000c 5DF8047B 		ldr	r7, [sp], #4
 117              		.cfi_restore 7
 118              		.cfi_def_cfa_offset 0
 119 0010 7047     		bx	lr
 120              		.cfi_endproc
 121              	.LFE64:
 122              		.size	post_init_board, .-post_init_board
 123 0012 00BF     		.section	.text.setpin_reset,"ax",%progbits
 124              		.align	2
 125              		.thumb
 126              		.thumb_func
 127              		.type	setpin_reset, %function
 128              	setpin_reset:
 129              	.LFB65:
  39:./board_ILI9341.h **** 
  40:./board_ILI9341.h **** static GFXINLINE void setpin_reset(GDisplay *g, bool_t state)
  41:./board_ILI9341.h **** {
 130              		.loc 1 41 0
ARM GAS  C:\Users\joel\AppData\Local\Temp\ccu8lQ08.s 			page 4


 131              		.cfi_startproc
 132              		@ args = 0, pretend = 0, frame = 8
 133              		@ frame_needed = 1, uses_anonymous_args = 0
 134 0000 80B5     		push	{r7, lr}
 135              		.cfi_def_cfa_offset 8
 136              		.cfi_offset 7, -8
 137              		.cfi_offset 14, -4
 138 0002 82B0     		sub	sp, sp, #8
 139              		.cfi_def_cfa_offset 16
 140 0004 00AF     		add	r7, sp, #0
 141              		.cfi_def_cfa_register 7
 142 0006 7860     		str	r0, [r7, #4]
 143 0008 0B46     		mov	r3, r1
 144 000a FB70     		strb	r3, [r7, #3]
  42:./board_ILI9341.h **** 	(void)g;
  43:./board_ILI9341.h ****     
  44:./board_ILI9341.h ****     if (state) {
 145              		.loc 1 44 0
 146 000c FB78     		ldrb	r3, [r7, #3]	@ zero_extendqisi2
 147 000e 002B     		cmp	r3, #0
 148 0010 03D0     		beq	.L4
  45:./board_ILI9341.h ****         LCD_RST_Write(0);
 149              		.loc 1 45 0
 150 0012 0020     		movs	r0, #0
 151 0014 FFF7FEFF 		bl	LCD_RST_Write
 152 0018 02E0     		b	.L3
 153              	.L4:
  46:./board_ILI9341.h ****     } else {
  47:./board_ILI9341.h ****         LCD_RST_Write(1);
 154              		.loc 1 47 0
 155 001a 0120     		movs	r0, #1
 156 001c FFF7FEFF 		bl	LCD_RST_Write
 157              	.L3:
  48:./board_ILI9341.h ****     }
  49:./board_ILI9341.h **** }
 158              		.loc 1 49 0
 159 0020 0837     		adds	r7, r7, #8
 160              		.cfi_def_cfa_offset 8
 161 0022 BD46     		mov	sp, r7
 162              		.cfi_def_cfa_register 13
 163              		@ sp needed
 164 0024 80BD     		pop	{r7, pc}
 165              		.cfi_endproc
 166              	.LFE65:
 167              		.size	setpin_reset, .-setpin_reset
 168 0026 00BF     		.section	.text.set_backlight,"ax",%progbits
 169              		.align	2
 170              		.thumb
 171              		.thumb_func
 172              		.type	set_backlight, %function
 173              	set_backlight:
 174              	.LFB66:
  50:./board_ILI9341.h **** 
  51:./board_ILI9341.h **** static GFXINLINE void set_backlight(GDisplay *g, uint8_t percent)
  52:./board_ILI9341.h **** {
 175              		.loc 1 52 0
 176              		.cfi_startproc
ARM GAS  C:\Users\joel\AppData\Local\Temp\ccu8lQ08.s 			page 5


 177              		@ args = 0, pretend = 0, frame = 8
 178              		@ frame_needed = 1, uses_anonymous_args = 0
 179              		@ link register save eliminated.
 180 0000 80B4     		push	{r7}
 181              		.cfi_def_cfa_offset 4
 182              		.cfi_offset 7, -4
 183 0002 83B0     		sub	sp, sp, #12
 184              		.cfi_def_cfa_offset 16
 185 0004 00AF     		add	r7, sp, #0
 186              		.cfi_def_cfa_register 7
 187 0006 7860     		str	r0, [r7, #4]
 188 0008 0B46     		mov	r3, r1
 189 000a FB70     		strb	r3, [r7, #3]
  53:./board_ILI9341.h **** 	(void)g;
  54:./board_ILI9341.h **** 	(void)percent;
  55:./board_ILI9341.h **** }
 190              		.loc 1 55 0
 191 000c 0C37     		adds	r7, r7, #12
 192              		.cfi_def_cfa_offset 4
 193 000e BD46     		mov	sp, r7
 194              		.cfi_def_cfa_register 13
 195              		@ sp needed
 196 0010 5DF8047B 		ldr	r7, [sp], #4
 197              		.cfi_restore 7
 198              		.cfi_def_cfa_offset 0
 199 0014 7047     		bx	lr
 200              		.cfi_endproc
 201              	.LFE66:
 202              		.size	set_backlight, .-set_backlight
 203 0016 00BF     		.section	.text.acquire_bus,"ax",%progbits
 204              		.align	2
 205              		.thumb
 206              		.thumb_func
 207              		.type	acquire_bus, %function
 208              	acquire_bus:
 209              	.LFB67:
  56:./board_ILI9341.h **** 
  57:./board_ILI9341.h **** static GFXINLINE void acquire_bus(GDisplay* g)
  58:./board_ILI9341.h **** {
 210              		.loc 1 58 0
 211              		.cfi_startproc
 212              		@ args = 0, pretend = 0, frame = 8
 213              		@ frame_needed = 1, uses_anonymous_args = 0
 214              		@ link register save eliminated.
 215 0000 80B4     		push	{r7}
 216              		.cfi_def_cfa_offset 4
 217              		.cfi_offset 7, -4
 218 0002 83B0     		sub	sp, sp, #12
 219              		.cfi_def_cfa_offset 16
 220 0004 00AF     		add	r7, sp, #0
 221              		.cfi_def_cfa_register 7
 222 0006 7860     		str	r0, [r7, #4]
  59:./board_ILI9341.h **** 	(void)g;
  60:./board_ILI9341.h **** }
 223              		.loc 1 60 0
 224 0008 0C37     		adds	r7, r7, #12
 225              		.cfi_def_cfa_offset 4
ARM GAS  C:\Users\joel\AppData\Local\Temp\ccu8lQ08.s 			page 6


 226 000a BD46     		mov	sp, r7
 227              		.cfi_def_cfa_register 13
 228              		@ sp needed
 229 000c 5DF8047B 		ldr	r7, [sp], #4
 230              		.cfi_restore 7
 231              		.cfi_def_cfa_offset 0
 232 0010 7047     		bx	lr
 233              		.cfi_endproc
 234              	.LFE67:
 235              		.size	acquire_bus, .-acquire_bus
 236 0012 00BF     		.section	.text.release_bus,"ax",%progbits
 237              		.align	2
 238              		.thumb
 239              		.thumb_func
 240              		.type	release_bus, %function
 241              	release_bus:
 242              	.LFB68:
  61:./board_ILI9341.h **** 
  62:./board_ILI9341.h **** static GFXINLINE void release_bus(GDisplay* g)
  63:./board_ILI9341.h **** {
 243              		.loc 1 63 0
 244              		.cfi_startproc
 245              		@ args = 0, pretend = 0, frame = 8
 246              		@ frame_needed = 1, uses_anonymous_args = 0
 247              		@ link register save eliminated.
 248 0000 80B4     		push	{r7}
 249              		.cfi_def_cfa_offset 4
 250              		.cfi_offset 7, -4
 251 0002 83B0     		sub	sp, sp, #12
 252              		.cfi_def_cfa_offset 16
 253 0004 00AF     		add	r7, sp, #0
 254              		.cfi_def_cfa_register 7
 255 0006 7860     		str	r0, [r7, #4]
  64:./board_ILI9341.h **** 	(void)g;
  65:./board_ILI9341.h **** }
 256              		.loc 1 65 0
 257 0008 0C37     		adds	r7, r7, #12
 258              		.cfi_def_cfa_offset 4
 259 000a BD46     		mov	sp, r7
 260              		.cfi_def_cfa_register 13
 261              		@ sp needed
 262 000c 5DF8047B 		ldr	r7, [sp], #4
 263              		.cfi_restore 7
 264              		.cfi_def_cfa_offset 0
 265 0010 7047     		bx	lr
 266              		.cfi_endproc
 267              	.LFE68:
 268              		.size	release_bus, .-release_bus
 269 0012 00BF     		.section	.text.write_index,"ax",%progbits
 270              		.align	2
 271              		.thumb
 272              		.thumb_func
 273              		.type	write_index, %function
 274              	write_index:
 275              	.LFB69:
  66:./board_ILI9341.h **** 
  67:./board_ILI9341.h **** static GFXINLINE void write_index(GDisplay* g, uint16_t index)
ARM GAS  C:\Users\joel\AppData\Local\Temp\ccu8lQ08.s 			page 7


  68:./board_ILI9341.h **** {
 276              		.loc 1 68 0
 277              		.cfi_startproc
 278              		@ args = 0, pretend = 0, frame = 8
 279              		@ frame_needed = 1, uses_anonymous_args = 0
 280 0000 80B5     		push	{r7, lr}
 281              		.cfi_def_cfa_offset 8
 282              		.cfi_offset 7, -8
 283              		.cfi_offset 14, -4
 284 0002 82B0     		sub	sp, sp, #8
 285              		.cfi_def_cfa_offset 16
 286 0004 00AF     		add	r7, sp, #0
 287              		.cfi_def_cfa_register 7
 288 0006 7860     		str	r0, [r7, #4]
 289 0008 0B46     		mov	r3, r1
 290 000a 7B80     		strh	r3, [r7, #2]	@ movhi
  69:./board_ILI9341.h **** 	(void)g;
  70:./board_ILI9341.h ****     
  71:./board_ILI9341.h ****     LCD_DC_Write(0);
 291              		.loc 1 71 0
 292 000c 0020     		movs	r0, #0
 293 000e FFF7FEFF 		bl	LCD_DC_Write
  72:./board_ILI9341.h ****     LCD_SPI_WriteTxData(index);
 294              		.loc 1 72 0
 295 0012 7B88     		ldrh	r3, [r7, #2]	@ movhi
 296 0014 DBB2     		uxtb	r3, r3
 297 0016 1846     		mov	r0, r3
 298 0018 FFF7FEFF 		bl	LCD_SPI_WriteTxData
  73:./board_ILI9341.h **** }
 299              		.loc 1 73 0
 300 001c 0837     		adds	r7, r7, #8
 301              		.cfi_def_cfa_offset 8
 302 001e BD46     		mov	sp, r7
 303              		.cfi_def_cfa_register 13
 304              		@ sp needed
 305 0020 80BD     		pop	{r7, pc}
 306              		.cfi_endproc
 307              	.LFE69:
 308              		.size	write_index, .-write_index
 309 0022 00BF     		.section	.text.write_data,"ax",%progbits
 310              		.align	2
 311              		.thumb
 312              		.thumb_func
 313              		.type	write_data, %function
 314              	write_data:
 315              	.LFB70:
  74:./board_ILI9341.h **** 
  75:./board_ILI9341.h **** static GFXINLINE void write_data(GDisplay* g, uint16_t data)
  76:./board_ILI9341.h **** {
 316              		.loc 1 76 0
 317              		.cfi_startproc
 318              		@ args = 0, pretend = 0, frame = 8
 319              		@ frame_needed = 1, uses_anonymous_args = 0
 320 0000 80B5     		push	{r7, lr}
 321              		.cfi_def_cfa_offset 8
 322              		.cfi_offset 7, -8
 323              		.cfi_offset 14, -4
ARM GAS  C:\Users\joel\AppData\Local\Temp\ccu8lQ08.s 			page 8


 324 0002 82B0     		sub	sp, sp, #8
 325              		.cfi_def_cfa_offset 16
 326 0004 00AF     		add	r7, sp, #0
 327              		.cfi_def_cfa_register 7
 328 0006 7860     		str	r0, [r7, #4]
 329 0008 0B46     		mov	r3, r1
 330 000a 7B80     		strh	r3, [r7, #2]	@ movhi
  77:./board_ILI9341.h **** 	(void)g;
  78:./board_ILI9341.h ****     
  79:./board_ILI9341.h ****     LCD_DC_Write(1);
 331              		.loc 1 79 0
 332 000c 0120     		movs	r0, #1
 333 000e FFF7FEFF 		bl	LCD_DC_Write
  80:./board_ILI9341.h ****     LCD_SPI_WriteTxData(data);
 334              		.loc 1 80 0
 335 0012 7B88     		ldrh	r3, [r7, #2]	@ movhi
 336 0014 DBB2     		uxtb	r3, r3
 337 0016 1846     		mov	r0, r3
 338 0018 FFF7FEFF 		bl	LCD_SPI_WriteTxData
  81:./board_ILI9341.h **** }
 339              		.loc 1 81 0
 340 001c 0837     		adds	r7, r7, #8
 341              		.cfi_def_cfa_offset 8
 342 001e BD46     		mov	sp, r7
 343              		.cfi_def_cfa_register 13
 344              		@ sp needed
 345 0020 80BD     		pop	{r7, pc}
 346              		.cfi_endproc
 347              	.LFE70:
 348              		.size	write_data, .-write_data
 349 0022 00BF     		.section	.text.setreadmode,"ax",%progbits
 350              		.align	2
 351              		.thumb
 352              		.thumb_func
 353              		.type	setreadmode, %function
 354              	setreadmode:
 355              	.LFB71:
  82:./board_ILI9341.h **** 
  83:./board_ILI9341.h **** static GFXINLINE void setreadmode(GDisplay* g)
  84:./board_ILI9341.h **** {
 356              		.loc 1 84 0
 357              		.cfi_startproc
 358              		@ args = 0, pretend = 0, frame = 8
 359              		@ frame_needed = 1, uses_anonymous_args = 0
 360              		@ link register save eliminated.
 361 0000 80B4     		push	{r7}
 362              		.cfi_def_cfa_offset 4
 363              		.cfi_offset 7, -4
 364 0002 83B0     		sub	sp, sp, #12
 365              		.cfi_def_cfa_offset 16
 366 0004 00AF     		add	r7, sp, #0
 367              		.cfi_def_cfa_register 7
 368 0006 7860     		str	r0, [r7, #4]
  85:./board_ILI9341.h **** 	(void)g;
  86:./board_ILI9341.h **** }
 369              		.loc 1 86 0
 370 0008 0C37     		adds	r7, r7, #12
ARM GAS  C:\Users\joel\AppData\Local\Temp\ccu8lQ08.s 			page 9


 371              		.cfi_def_cfa_offset 4
 372 000a BD46     		mov	sp, r7
 373              		.cfi_def_cfa_register 13
 374              		@ sp needed
 375 000c 5DF8047B 		ldr	r7, [sp], #4
 376              		.cfi_restore 7
 377              		.cfi_def_cfa_offset 0
 378 0010 7047     		bx	lr
 379              		.cfi_endproc
 380              	.LFE71:
 381              		.size	setreadmode, .-setreadmode
 382 0012 00BF     		.section	.text.setwritemode,"ax",%progbits
 383              		.align	2
 384              		.thumb
 385              		.thumb_func
 386              		.type	setwritemode, %function
 387              	setwritemode:
 388              	.LFB72:
  87:./board_ILI9341.h **** 
  88:./board_ILI9341.h **** static GFXINLINE void setwritemode(GDisplay* g)
  89:./board_ILI9341.h **** {
 389              		.loc 1 89 0
 390              		.cfi_startproc
 391              		@ args = 0, pretend = 0, frame = 8
 392              		@ frame_needed = 1, uses_anonymous_args = 0
 393              		@ link register save eliminated.
 394 0000 80B4     		push	{r7}
 395              		.cfi_def_cfa_offset 4
 396              		.cfi_offset 7, -4
 397 0002 83B0     		sub	sp, sp, #12
 398              		.cfi_def_cfa_offset 16
 399 0004 00AF     		add	r7, sp, #0
 400              		.cfi_def_cfa_register 7
 401 0006 7860     		str	r0, [r7, #4]
  90:./board_ILI9341.h **** 	(void)g;
  91:./board_ILI9341.h **** }
 402              		.loc 1 91 0
 403 0008 0C37     		adds	r7, r7, #12
 404              		.cfi_def_cfa_offset 4
 405 000a BD46     		mov	sp, r7
 406              		.cfi_def_cfa_register 13
 407              		@ sp needed
 408 000c 5DF8047B 		ldr	r7, [sp], #4
 409              		.cfi_restore 7
 410              		.cfi_def_cfa_offset 0
 411 0010 7047     		bx	lr
 412              		.cfi_endproc
 413              	.LFE72:
 414              		.size	setwritemode, .-setwritemode
 415 0012 00BF     		.section	.text.read_data,"ax",%progbits
 416              		.align	2
 417              		.thumb
 418              		.thumb_func
 419              		.type	read_data, %function
 420              	read_data:
 421              	.LFB73:
  92:./board_ILI9341.h **** 
ARM GAS  C:\Users\joel\AppData\Local\Temp\ccu8lQ08.s 			page 10


  93:./board_ILI9341.h **** static GFXINLINE uint16_t read_data(GDisplay* g)
  94:./board_ILI9341.h **** {
 422              		.loc 1 94 0
 423              		.cfi_startproc
 424              		@ args = 0, pretend = 0, frame = 8
 425              		@ frame_needed = 1, uses_anonymous_args = 0
 426 0000 80B5     		push	{r7, lr}
 427              		.cfi_def_cfa_offset 8
 428              		.cfi_offset 7, -8
 429              		.cfi_offset 14, -4
 430 0002 82B0     		sub	sp, sp, #8
 431              		.cfi_def_cfa_offset 16
 432 0004 00AF     		add	r7, sp, #0
 433              		.cfi_def_cfa_register 7
 434 0006 7860     		str	r0, [r7, #4]
  95:./board_ILI9341.h **** 	(void)g;
  96:./board_ILI9341.h ****     
  97:./board_ILI9341.h **** 	return LCD_SPI_ReadRxData();
 435              		.loc 1 97 0
 436 0008 FFF7FEFF 		bl	LCD_SPI_ReadRxData
 437 000c 0346     		mov	r3, r0
 438 000e 9BB2     		uxth	r3, r3
  98:./board_ILI9341.h **** }
 439              		.loc 1 98 0
 440 0010 1846     		mov	r0, r3
 441 0012 0837     		adds	r7, r7, #8
 442              		.cfi_def_cfa_offset 8
 443 0014 BD46     		mov	sp, r7
 444              		.cfi_def_cfa_register 13
 445              		@ sp needed
 446 0016 80BD     		pop	{r7, pc}
 447              		.cfi_endproc
 448              	.LFE73:
 449              		.size	read_data, .-read_data
 450              		.section	.text.set_viewport,"ax",%progbits
 451              		.align	2
 452              		.thumb
 453              		.thumb_func
 454              		.type	set_viewport, %function
 455              	set_viewport:
 456              	.LFB74:
 457              		.file 2 "..\\ugfx_2.6\\drivers\\gdisp\\ILI9341\\gdisp_lld_ILI9341.c"
   1:..\ugfx_2.6\drivers\gdisp\ILI9341/gdisp_lld_ILI9341.c **** /*
   2:..\ugfx_2.6\drivers\gdisp\ILI9341/gdisp_lld_ILI9341.c ****  * This file is subject to the terms of the GFX License. If a copy of
   3:..\ugfx_2.6\drivers\gdisp\ILI9341/gdisp_lld_ILI9341.c ****  * the license was not distributed with this file, you can obtain one at:
   4:..\ugfx_2.6\drivers\gdisp\ILI9341/gdisp_lld_ILI9341.c ****  *
   5:..\ugfx_2.6\drivers\gdisp\ILI9341/gdisp_lld_ILI9341.c ****  *              http://ugfx.org/license.html
   6:..\ugfx_2.6\drivers\gdisp\ILI9341/gdisp_lld_ILI9341.c ****  */
   7:..\ugfx_2.6\drivers\gdisp\ILI9341/gdisp_lld_ILI9341.c **** 
   8:..\ugfx_2.6\drivers\gdisp\ILI9341/gdisp_lld_ILI9341.c **** #include "gfx.h"
   9:..\ugfx_2.6\drivers\gdisp\ILI9341/gdisp_lld_ILI9341.c **** 
  10:..\ugfx_2.6\drivers\gdisp\ILI9341/gdisp_lld_ILI9341.c **** #if GFX_USE_GDISP
  11:..\ugfx_2.6\drivers\gdisp\ILI9341/gdisp_lld_ILI9341.c **** 
  12:..\ugfx_2.6\drivers\gdisp\ILI9341/gdisp_lld_ILI9341.c **** #if defined(GDISP_SCREEN_HEIGHT)
  13:..\ugfx_2.6\drivers\gdisp\ILI9341/gdisp_lld_ILI9341.c **** 	#warning "GDISP: This low level driver does not support setting a screen size. It is being ignored
  14:..\ugfx_2.6\drivers\gdisp\ILI9341/gdisp_lld_ILI9341.c **** 	#undef GISP_SCREEN_HEIGHT
  15:..\ugfx_2.6\drivers\gdisp\ILI9341/gdisp_lld_ILI9341.c **** #endif
ARM GAS  C:\Users\joel\AppData\Local\Temp\ccu8lQ08.s 			page 11


  16:..\ugfx_2.6\drivers\gdisp\ILI9341/gdisp_lld_ILI9341.c **** #if defined(GDISP_SCREEN_WIDTH)
  17:..\ugfx_2.6\drivers\gdisp\ILI9341/gdisp_lld_ILI9341.c **** 	#warning "GDISP: This low level driver does not support setting a screen size. It is being ignored
  18:..\ugfx_2.6\drivers\gdisp\ILI9341/gdisp_lld_ILI9341.c **** 	#undef GDISP_SCREEN_WIDTH
  19:..\ugfx_2.6\drivers\gdisp\ILI9341/gdisp_lld_ILI9341.c **** #endif
  20:..\ugfx_2.6\drivers\gdisp\ILI9341/gdisp_lld_ILI9341.c **** 
  21:..\ugfx_2.6\drivers\gdisp\ILI9341/gdisp_lld_ILI9341.c **** #define GDISP_DRIVER_VMT			GDISPVMT_ILI9341
  22:..\ugfx_2.6\drivers\gdisp\ILI9341/gdisp_lld_ILI9341.c **** #include "gdisp_lld_config.h"
  23:..\ugfx_2.6\drivers\gdisp\ILI9341/gdisp_lld_ILI9341.c **** #include "../../../src/gdisp/gdisp_driver.h"
  24:..\ugfx_2.6\drivers\gdisp\ILI9341/gdisp_lld_ILI9341.c **** 
  25:..\ugfx_2.6\drivers\gdisp\ILI9341/gdisp_lld_ILI9341.c **** #include "board_ILI9341.h"
  26:..\ugfx_2.6\drivers\gdisp\ILI9341/gdisp_lld_ILI9341.c **** 
  27:..\ugfx_2.6\drivers\gdisp\ILI9341/gdisp_lld_ILI9341.c **** /*===========================================================================*/
  28:..\ugfx_2.6\drivers\gdisp\ILI9341/gdisp_lld_ILI9341.c **** /* Driver local definitions.                                                 */
  29:..\ugfx_2.6\drivers\gdisp\ILI9341/gdisp_lld_ILI9341.c **** /*===========================================================================*/
  30:..\ugfx_2.6\drivers\gdisp\ILI9341/gdisp_lld_ILI9341.c **** 
  31:..\ugfx_2.6\drivers\gdisp\ILI9341/gdisp_lld_ILI9341.c **** #ifndef GDISP_SCREEN_HEIGHT
  32:..\ugfx_2.6\drivers\gdisp\ILI9341/gdisp_lld_ILI9341.c **** 	#define GDISP_SCREEN_HEIGHT		320
  33:..\ugfx_2.6\drivers\gdisp\ILI9341/gdisp_lld_ILI9341.c **** #endif
  34:..\ugfx_2.6\drivers\gdisp\ILI9341/gdisp_lld_ILI9341.c **** #ifndef GDISP_SCREEN_WIDTH
  35:..\ugfx_2.6\drivers\gdisp\ILI9341/gdisp_lld_ILI9341.c **** 	#define GDISP_SCREEN_WIDTH		240
  36:..\ugfx_2.6\drivers\gdisp\ILI9341/gdisp_lld_ILI9341.c **** #endif
  37:..\ugfx_2.6\drivers\gdisp\ILI9341/gdisp_lld_ILI9341.c **** #ifndef GDISP_INITIAL_CONTRAST
  38:..\ugfx_2.6\drivers\gdisp\ILI9341/gdisp_lld_ILI9341.c **** 	#define GDISP_INITIAL_CONTRAST	50
  39:..\ugfx_2.6\drivers\gdisp\ILI9341/gdisp_lld_ILI9341.c **** #endif
  40:..\ugfx_2.6\drivers\gdisp\ILI9341/gdisp_lld_ILI9341.c **** #ifndef GDISP_INITIAL_BACKLIGHT
  41:..\ugfx_2.6\drivers\gdisp\ILI9341/gdisp_lld_ILI9341.c **** 	#define GDISP_INITIAL_BACKLIGHT	100
  42:..\ugfx_2.6\drivers\gdisp\ILI9341/gdisp_lld_ILI9341.c **** #endif
  43:..\ugfx_2.6\drivers\gdisp\ILI9341/gdisp_lld_ILI9341.c **** 
  44:..\ugfx_2.6\drivers\gdisp\ILI9341/gdisp_lld_ILI9341.c **** #include "ILI9341.h"
  45:..\ugfx_2.6\drivers\gdisp\ILI9341/gdisp_lld_ILI9341.c **** 
  46:..\ugfx_2.6\drivers\gdisp\ILI9341/gdisp_lld_ILI9341.c **** /*===========================================================================*/
  47:..\ugfx_2.6\drivers\gdisp\ILI9341/gdisp_lld_ILI9341.c **** /* Driver local functions.                                                   */
  48:..\ugfx_2.6\drivers\gdisp\ILI9341/gdisp_lld_ILI9341.c **** /*===========================================================================*/
  49:..\ugfx_2.6\drivers\gdisp\ILI9341/gdisp_lld_ILI9341.c **** 
  50:..\ugfx_2.6\drivers\gdisp\ILI9341/gdisp_lld_ILI9341.c **** // Some common routines and macros
  51:..\ugfx_2.6\drivers\gdisp\ILI9341/gdisp_lld_ILI9341.c **** #define dummy_read(g)				{ volatile uint16_t dummy; dummy = read_data(g); (void) dummy; }
  52:..\ugfx_2.6\drivers\gdisp\ILI9341/gdisp_lld_ILI9341.c **** #define write_reg(g, reg, data)		{ write_index(g, reg); write_data(g, data); }
  53:..\ugfx_2.6\drivers\gdisp\ILI9341/gdisp_lld_ILI9341.c **** #define write_data16(g, data)		{ write_data(g, data >> 8); write_data(g, (uint8_t)data); }
  54:..\ugfx_2.6\drivers\gdisp\ILI9341/gdisp_lld_ILI9341.c **** #define delay(us)					gfxSleepMicroseconds(us)
  55:..\ugfx_2.6\drivers\gdisp\ILI9341/gdisp_lld_ILI9341.c **** #define delayms(ms)					gfxSleepMilliseconds(ms)
  56:..\ugfx_2.6\drivers\gdisp\ILI9341/gdisp_lld_ILI9341.c **** 
  57:..\ugfx_2.6\drivers\gdisp\ILI9341/gdisp_lld_ILI9341.c **** static void set_viewport(GDisplay *g) {
 458              		.loc 2 57 0
 459              		.cfi_startproc
 460              		@ args = 0, pretend = 0, frame = 8
 461              		@ frame_needed = 1, uses_anonymous_args = 0
 462 0000 80B5     		push	{r7, lr}
 463              		.cfi_def_cfa_offset 8
 464              		.cfi_offset 7, -8
 465              		.cfi_offset 14, -4
 466 0002 82B0     		sub	sp, sp, #8
 467              		.cfi_def_cfa_offset 16
 468 0004 00AF     		add	r7, sp, #0
 469              		.cfi_def_cfa_register 7
 470 0006 7860     		str	r0, [r7, #4]
  58:..\ugfx_2.6\drivers\gdisp\ILI9341/gdisp_lld_ILI9341.c **** 	write_index(g, 0x2A);
 471              		.loc 2 58 0
ARM GAS  C:\Users\joel\AppData\Local\Temp\ccu8lQ08.s 			page 12


 472 0008 7868     		ldr	r0, [r7, #4]
 473 000a 2A21     		movs	r1, #42
 474 000c FFF7FEFF 		bl	write_index
  59:..\ugfx_2.6\drivers\gdisp\ILI9341/gdisp_lld_ILI9341.c **** 	write_data(g, (g->p.x >> 8));
 475              		.loc 2 59 0
 476 0010 7B68     		ldr	r3, [r7, #4]
 477 0012 1B8D     		ldrh	r3, [r3, #40]
 478 0014 1BB2     		sxth	r3, r3
 479 0016 1B12     		asrs	r3, r3, #8
 480 0018 9BB2     		uxth	r3, r3
 481 001a 9BB2     		uxth	r3, r3
 482 001c 7868     		ldr	r0, [r7, #4]
 483 001e 1946     		mov	r1, r3
 484 0020 FFF7FEFF 		bl	write_data
  60:..\ugfx_2.6\drivers\gdisp\ILI9341/gdisp_lld_ILI9341.c **** 	write_data(g, (uint8_t) g->p.x);
 485              		.loc 2 60 0
 486 0024 7B68     		ldr	r3, [r7, #4]
 487 0026 1B8D     		ldrh	r3, [r3, #40]
 488 0028 DBB2     		uxtb	r3, r3
 489 002a 9BB2     		uxth	r3, r3
 490 002c 7868     		ldr	r0, [r7, #4]
 491 002e 1946     		mov	r1, r3
 492 0030 FFF7FEFF 		bl	write_data
  61:..\ugfx_2.6\drivers\gdisp\ILI9341/gdisp_lld_ILI9341.c **** 	write_data(g, (g->p.x + g->p.cx - 1) >> 8);
 493              		.loc 2 61 0
 494 0034 7B68     		ldr	r3, [r7, #4]
 495 0036 1B8D     		ldrh	r3, [r3, #40]
 496 0038 1AB2     		sxth	r2, r3
 497 003a 7B68     		ldr	r3, [r7, #4]
 498 003c 9B8D     		ldrh	r3, [r3, #44]
 499 003e 1BB2     		sxth	r3, r3
 500 0040 1344     		add	r3, r3, r2
 501 0042 013B     		subs	r3, r3, #1
 502 0044 1B12     		asrs	r3, r3, #8
 503 0046 9BB2     		uxth	r3, r3
 504 0048 7868     		ldr	r0, [r7, #4]
 505 004a 1946     		mov	r1, r3
 506 004c FFF7FEFF 		bl	write_data
  62:..\ugfx_2.6\drivers\gdisp\ILI9341/gdisp_lld_ILI9341.c **** 	write_data(g, (uint8_t) (g->p.x + g->p.cx - 1));
 507              		.loc 2 62 0
 508 0050 7B68     		ldr	r3, [r7, #4]
 509 0052 1B8D     		ldrh	r3, [r3, #40]
 510 0054 DAB2     		uxtb	r2, r3
 511 0056 7B68     		ldr	r3, [r7, #4]
 512 0058 9B8D     		ldrh	r3, [r3, #44]
 513 005a DBB2     		uxtb	r3, r3
 514 005c 1344     		add	r3, r3, r2
 515 005e DBB2     		uxtb	r3, r3
 516 0060 013B     		subs	r3, r3, #1
 517 0062 DBB2     		uxtb	r3, r3
 518 0064 9BB2     		uxth	r3, r3
 519 0066 7868     		ldr	r0, [r7, #4]
 520 0068 1946     		mov	r1, r3
 521 006a FFF7FEFF 		bl	write_data
  63:..\ugfx_2.6\drivers\gdisp\ILI9341/gdisp_lld_ILI9341.c **** 
  64:..\ugfx_2.6\drivers\gdisp\ILI9341/gdisp_lld_ILI9341.c **** 	write_index(g, 0x2B);
 522              		.loc 2 64 0
ARM GAS  C:\Users\joel\AppData\Local\Temp\ccu8lQ08.s 			page 13


 523 006e 7868     		ldr	r0, [r7, #4]
 524 0070 2B21     		movs	r1, #43
 525 0072 FFF7FEFF 		bl	write_index
  65:..\ugfx_2.6\drivers\gdisp\ILI9341/gdisp_lld_ILI9341.c **** 	write_data(g, (g->p.y >> 8));
 526              		.loc 2 65 0
 527 0076 7B68     		ldr	r3, [r7, #4]
 528 0078 5B8D     		ldrh	r3, [r3, #42]
 529 007a 1BB2     		sxth	r3, r3
 530 007c 1B12     		asrs	r3, r3, #8
 531 007e 9BB2     		uxth	r3, r3
 532 0080 9BB2     		uxth	r3, r3
 533 0082 7868     		ldr	r0, [r7, #4]
 534 0084 1946     		mov	r1, r3
 535 0086 FFF7FEFF 		bl	write_data
  66:..\ugfx_2.6\drivers\gdisp\ILI9341/gdisp_lld_ILI9341.c **** 	write_data(g, (uint8_t) g->p.y);
 536              		.loc 2 66 0
 537 008a 7B68     		ldr	r3, [r7, #4]
 538 008c 5B8D     		ldrh	r3, [r3, #42]
 539 008e DBB2     		uxtb	r3, r3
 540 0090 9BB2     		uxth	r3, r3
 541 0092 7868     		ldr	r0, [r7, #4]
 542 0094 1946     		mov	r1, r3
 543 0096 FFF7FEFF 		bl	write_data
  67:..\ugfx_2.6\drivers\gdisp\ILI9341/gdisp_lld_ILI9341.c **** 	write_data(g, (g->p.y + g->p.cy - 1) >> 8);
 544              		.loc 2 67 0
 545 009a 7B68     		ldr	r3, [r7, #4]
 546 009c 5B8D     		ldrh	r3, [r3, #42]
 547 009e 1AB2     		sxth	r2, r3
 548 00a0 7B68     		ldr	r3, [r7, #4]
 549 00a2 DB8D     		ldrh	r3, [r3, #46]
 550 00a4 1BB2     		sxth	r3, r3
 551 00a6 1344     		add	r3, r3, r2
 552 00a8 013B     		subs	r3, r3, #1
 553 00aa 1B12     		asrs	r3, r3, #8
 554 00ac 9BB2     		uxth	r3, r3
 555 00ae 7868     		ldr	r0, [r7, #4]
 556 00b0 1946     		mov	r1, r3
 557 00b2 FFF7FEFF 		bl	write_data
  68:..\ugfx_2.6\drivers\gdisp\ILI9341/gdisp_lld_ILI9341.c **** 	write_data(g, (uint8_t) (g->p.y + g->p.cy - 1));
 558              		.loc 2 68 0
 559 00b6 7B68     		ldr	r3, [r7, #4]
 560 00b8 5B8D     		ldrh	r3, [r3, #42]
 561 00ba DAB2     		uxtb	r2, r3
 562 00bc 7B68     		ldr	r3, [r7, #4]
 563 00be DB8D     		ldrh	r3, [r3, #46]
 564 00c0 DBB2     		uxtb	r3, r3
 565 00c2 1344     		add	r3, r3, r2
 566 00c4 DBB2     		uxtb	r3, r3
 567 00c6 013B     		subs	r3, r3, #1
 568 00c8 DBB2     		uxtb	r3, r3
 569 00ca 9BB2     		uxth	r3, r3
 570 00cc 7868     		ldr	r0, [r7, #4]
 571 00ce 1946     		mov	r1, r3
 572 00d0 FFF7FEFF 		bl	write_data
  69:..\ugfx_2.6\drivers\gdisp\ILI9341/gdisp_lld_ILI9341.c **** }
 573              		.loc 2 69 0
 574 00d4 0837     		adds	r7, r7, #8
ARM GAS  C:\Users\joel\AppData\Local\Temp\ccu8lQ08.s 			page 14


 575              		.cfi_def_cfa_offset 8
 576 00d6 BD46     		mov	sp, r7
 577              		.cfi_def_cfa_register 13
 578              		@ sp needed
 579 00d8 80BD     		pop	{r7, pc}
 580              		.cfi_endproc
 581              	.LFE74:
 582              		.size	set_viewport, .-set_viewport
 583 00da 00BF     		.section	.text.gdisp_lld_init,"ax",%progbits
 584              		.align	2
 585              		.global	gdisp_lld_init
 586              		.thumb
 587              		.thumb_func
 588              		.type	gdisp_lld_init, %function
 589              	gdisp_lld_init:
 590              	.LFB75:
  70:..\ugfx_2.6\drivers\gdisp\ILI9341/gdisp_lld_ILI9341.c **** 
  71:..\ugfx_2.6\drivers\gdisp\ILI9341/gdisp_lld_ILI9341.c **** /*===========================================================================*/
  72:..\ugfx_2.6\drivers\gdisp\ILI9341/gdisp_lld_ILI9341.c **** /* Driver exported functions.                                                */
  73:..\ugfx_2.6\drivers\gdisp\ILI9341/gdisp_lld_ILI9341.c **** /*===========================================================================*/
  74:..\ugfx_2.6\drivers\gdisp\ILI9341/gdisp_lld_ILI9341.c **** 
  75:..\ugfx_2.6\drivers\gdisp\ILI9341/gdisp_lld_ILI9341.c **** LLDSPEC bool_t gdisp_lld_init(GDisplay *g) {
 591              		.loc 2 75 0
 592              		.cfi_startproc
 593              		@ args = 0, pretend = 0, frame = 8
 594              		@ frame_needed = 1, uses_anonymous_args = 0
 595 0000 80B5     		push	{r7, lr}
 596              		.cfi_def_cfa_offset 8
 597              		.cfi_offset 7, -8
 598              		.cfi_offset 14, -4
 599 0002 82B0     		sub	sp, sp, #8
 600              		.cfi_def_cfa_offset 16
 601 0004 00AF     		add	r7, sp, #0
 602              		.cfi_def_cfa_register 7
 603 0006 7860     		str	r0, [r7, #4]
  76:..\ugfx_2.6\drivers\gdisp\ILI9341/gdisp_lld_ILI9341.c **** 	// No private area for this controller
  77:..\ugfx_2.6\drivers\gdisp\ILI9341/gdisp_lld_ILI9341.c **** 	g->priv = 0;
 604              		.loc 2 77 0
 605 0008 7B68     		ldr	r3, [r7, #4]
 606 000a 0022     		movs	r2, #0
 607 000c 5A61     		str	r2, [r3, #20]
  78:..\ugfx_2.6\drivers\gdisp\ILI9341/gdisp_lld_ILI9341.c **** 
  79:..\ugfx_2.6\drivers\gdisp\ILI9341/gdisp_lld_ILI9341.c **** 	// Initialise the board interface
  80:..\ugfx_2.6\drivers\gdisp\ILI9341/gdisp_lld_ILI9341.c **** 	init_board(g);
 608              		.loc 2 80 0
 609 000e 7868     		ldr	r0, [r7, #4]
 610 0010 FFF7FEFF 		bl	init_board
  81:..\ugfx_2.6\drivers\gdisp\ILI9341/gdisp_lld_ILI9341.c **** 
  82:..\ugfx_2.6\drivers\gdisp\ILI9341/gdisp_lld_ILI9341.c **** 	// Hardware reset
  83:..\ugfx_2.6\drivers\gdisp\ILI9341/gdisp_lld_ILI9341.c **** 	setpin_reset(g, TRUE);
 611              		.loc 2 83 0
 612 0014 7868     		ldr	r0, [r7, #4]
 613 0016 FF21     		movs	r1, #255
 614 0018 FFF7FEFF 		bl	setpin_reset
  84:..\ugfx_2.6\drivers\gdisp\ILI9341/gdisp_lld_ILI9341.c **** 	gfxSleepMilliseconds(20);
 615              		.loc 2 84 0
 616 001c 1420     		movs	r0, #20
ARM GAS  C:\Users\joel\AppData\Local\Temp\ccu8lQ08.s 			page 15


 617 001e FFF7FEFF 		bl	gfxSleepMilliseconds
  85:..\ugfx_2.6\drivers\gdisp\ILI9341/gdisp_lld_ILI9341.c **** 	setpin_reset(g, FALSE);
 618              		.loc 2 85 0
 619 0022 7868     		ldr	r0, [r7, #4]
 620 0024 0021     		movs	r1, #0
 621 0026 FFF7FEFF 		bl	setpin_reset
  86:..\ugfx_2.6\drivers\gdisp\ILI9341/gdisp_lld_ILI9341.c **** 	gfxSleepMilliseconds(20);
 622              		.loc 2 86 0
 623 002a 1420     		movs	r0, #20
 624 002c FFF7FEFF 		bl	gfxSleepMilliseconds
  87:..\ugfx_2.6\drivers\gdisp\ILI9341/gdisp_lld_ILI9341.c **** 
  88:..\ugfx_2.6\drivers\gdisp\ILI9341/gdisp_lld_ILI9341.c **** 	// Get the bus for the following initialisation commands
  89:..\ugfx_2.6\drivers\gdisp\ILI9341/gdisp_lld_ILI9341.c **** 	acquire_bus(g);
 625              		.loc 2 89 0
 626 0030 7868     		ldr	r0, [r7, #4]
 627 0032 FFF7FEFF 		bl	acquire_bus
  90:..\ugfx_2.6\drivers\gdisp\ILI9341/gdisp_lld_ILI9341.c **** 
  91:..\ugfx_2.6\drivers\gdisp\ILI9341/gdisp_lld_ILI9341.c **** 	write_index(g, 0x01); //software reset
 628              		.loc 2 91 0
 629 0036 7868     		ldr	r0, [r7, #4]
 630 0038 0121     		movs	r1, #1
 631 003a FFF7FEFF 		bl	write_index
  92:..\ugfx_2.6\drivers\gdisp\ILI9341/gdisp_lld_ILI9341.c **** 	gfxSleepMilliseconds(5);
 632              		.loc 2 92 0
 633 003e 0520     		movs	r0, #5
 634 0040 FFF7FEFF 		bl	gfxSleepMilliseconds
  93:..\ugfx_2.6\drivers\gdisp\ILI9341/gdisp_lld_ILI9341.c **** 	write_index(g, 0x28);
 635              		.loc 2 93 0
 636 0044 7868     		ldr	r0, [r7, #4]
 637 0046 2821     		movs	r1, #40
 638 0048 FFF7FEFF 		bl	write_index
  94:..\ugfx_2.6\drivers\gdisp\ILI9341/gdisp_lld_ILI9341.c **** 	// display off
  95:..\ugfx_2.6\drivers\gdisp\ILI9341/gdisp_lld_ILI9341.c **** 	//---------------------------------------------------------
  96:..\ugfx_2.6\drivers\gdisp\ILI9341/gdisp_lld_ILI9341.c **** 	// magic?
  97:..\ugfx_2.6\drivers\gdisp\ILI9341/gdisp_lld_ILI9341.c **** 	write_index(g, 0xcf);
 639              		.loc 2 97 0
 640 004c 7868     		ldr	r0, [r7, #4]
 641 004e CF21     		movs	r1, #207
 642 0050 FFF7FEFF 		bl	write_index
  98:..\ugfx_2.6\drivers\gdisp\ILI9341/gdisp_lld_ILI9341.c **** 	write_data(g, 0x00);
 643              		.loc 2 98 0
 644 0054 7868     		ldr	r0, [r7, #4]
 645 0056 0021     		movs	r1, #0
 646 0058 FFF7FEFF 		bl	write_data
  99:..\ugfx_2.6\drivers\gdisp\ILI9341/gdisp_lld_ILI9341.c **** 	write_data(g, 0x83);
 647              		.loc 2 99 0
 648 005c 7868     		ldr	r0, [r7, #4]
 649 005e 8321     		movs	r1, #131
 650 0060 FFF7FEFF 		bl	write_data
 100:..\ugfx_2.6\drivers\gdisp\ILI9341/gdisp_lld_ILI9341.c **** 	write_data(g, 0x30);
 651              		.loc 2 100 0
 652 0064 7868     		ldr	r0, [r7, #4]
 653 0066 3021     		movs	r1, #48
 654 0068 FFF7FEFF 		bl	write_data
 101:..\ugfx_2.6\drivers\gdisp\ILI9341/gdisp_lld_ILI9341.c **** 
 102:..\ugfx_2.6\drivers\gdisp\ILI9341/gdisp_lld_ILI9341.c **** 	write_index(g, 0xed);
 655              		.loc 2 102 0
ARM GAS  C:\Users\joel\AppData\Local\Temp\ccu8lQ08.s 			page 16


 656 006c 7868     		ldr	r0, [r7, #4]
 657 006e ED21     		movs	r1, #237
 658 0070 FFF7FEFF 		bl	write_index
 103:..\ugfx_2.6\drivers\gdisp\ILI9341/gdisp_lld_ILI9341.c **** 	write_data(g, 0x64);
 659              		.loc 2 103 0
 660 0074 7868     		ldr	r0, [r7, #4]
 661 0076 6421     		movs	r1, #100
 662 0078 FFF7FEFF 		bl	write_data
 104:..\ugfx_2.6\drivers\gdisp\ILI9341/gdisp_lld_ILI9341.c **** 	write_data(g, 0x03);
 663              		.loc 2 104 0
 664 007c 7868     		ldr	r0, [r7, #4]
 665 007e 0321     		movs	r1, #3
 666 0080 FFF7FEFF 		bl	write_data
 105:..\ugfx_2.6\drivers\gdisp\ILI9341/gdisp_lld_ILI9341.c **** 	write_data(g, 0x12);
 667              		.loc 2 105 0
 668 0084 7868     		ldr	r0, [r7, #4]
 669 0086 1221     		movs	r1, #18
 670 0088 FFF7FEFF 		bl	write_data
 106:..\ugfx_2.6\drivers\gdisp\ILI9341/gdisp_lld_ILI9341.c **** 	write_data(g, 0x81);
 671              		.loc 2 106 0
 672 008c 7868     		ldr	r0, [r7, #4]
 673 008e 8121     		movs	r1, #129
 674 0090 FFF7FEFF 		bl	write_data
 107:..\ugfx_2.6\drivers\gdisp\ILI9341/gdisp_lld_ILI9341.c **** 	write_index(g, 0xe8);
 675              		.loc 2 107 0
 676 0094 7868     		ldr	r0, [r7, #4]
 677 0096 E821     		movs	r1, #232
 678 0098 FFF7FEFF 		bl	write_index
 108:..\ugfx_2.6\drivers\gdisp\ILI9341/gdisp_lld_ILI9341.c **** 	write_data(g, 0x85);
 679              		.loc 2 108 0
 680 009c 7868     		ldr	r0, [r7, #4]
 681 009e 8521     		movs	r1, #133
 682 00a0 FFF7FEFF 		bl	write_data
 109:..\ugfx_2.6\drivers\gdisp\ILI9341/gdisp_lld_ILI9341.c **** 	write_data(g, 0x01);
 683              		.loc 2 109 0
 684 00a4 7868     		ldr	r0, [r7, #4]
 685 00a6 0121     		movs	r1, #1
 686 00a8 FFF7FEFF 		bl	write_data
 110:..\ugfx_2.6\drivers\gdisp\ILI9341/gdisp_lld_ILI9341.c **** 	write_data(g, 0x79);
 687              		.loc 2 110 0
 688 00ac 7868     		ldr	r0, [r7, #4]
 689 00ae 7921     		movs	r1, #121
 690 00b0 FFF7FEFF 		bl	write_data
 111:..\ugfx_2.6\drivers\gdisp\ILI9341/gdisp_lld_ILI9341.c **** 	write_index(g, 0xcb);
 691              		.loc 2 111 0
 692 00b4 7868     		ldr	r0, [r7, #4]
 693 00b6 CB21     		movs	r1, #203
 694 00b8 FFF7FEFF 		bl	write_index
 112:..\ugfx_2.6\drivers\gdisp\ILI9341/gdisp_lld_ILI9341.c **** 	write_data(g, 0x39);
 695              		.loc 2 112 0
 696 00bc 7868     		ldr	r0, [r7, #4]
 697 00be 3921     		movs	r1, #57
 698 00c0 FFF7FEFF 		bl	write_data
 113:..\ugfx_2.6\drivers\gdisp\ILI9341/gdisp_lld_ILI9341.c **** 	write_data(g, 0x2c);
 699              		.loc 2 113 0
 700 00c4 7868     		ldr	r0, [r7, #4]
 701 00c6 2C21     		movs	r1, #44
ARM GAS  C:\Users\joel\AppData\Local\Temp\ccu8lQ08.s 			page 17


 702 00c8 FFF7FEFF 		bl	write_data
 114:..\ugfx_2.6\drivers\gdisp\ILI9341/gdisp_lld_ILI9341.c **** 	write_data(g, 0x00);
 703              		.loc 2 114 0
 704 00cc 7868     		ldr	r0, [r7, #4]
 705 00ce 0021     		movs	r1, #0
 706 00d0 FFF7FEFF 		bl	write_data
 115:..\ugfx_2.6\drivers\gdisp\ILI9341/gdisp_lld_ILI9341.c **** 	write_data(g, 0x34);
 707              		.loc 2 115 0
 708 00d4 7868     		ldr	r0, [r7, #4]
 709 00d6 3421     		movs	r1, #52
 710 00d8 FFF7FEFF 		bl	write_data
 116:..\ugfx_2.6\drivers\gdisp\ILI9341/gdisp_lld_ILI9341.c **** 	write_data(g, 0x02);
 711              		.loc 2 116 0
 712 00dc 7868     		ldr	r0, [r7, #4]
 713 00de 0221     		movs	r1, #2
 714 00e0 FFF7FEFF 		bl	write_data
 117:..\ugfx_2.6\drivers\gdisp\ILI9341/gdisp_lld_ILI9341.c **** 	write_index(g, 0xf7);
 715              		.loc 2 117 0
 716 00e4 7868     		ldr	r0, [r7, #4]
 717 00e6 F721     		movs	r1, #247
 718 00e8 FFF7FEFF 		bl	write_index
 118:..\ugfx_2.6\drivers\gdisp\ILI9341/gdisp_lld_ILI9341.c **** 	write_data(g, 0x20);
 719              		.loc 2 118 0
 720 00ec 7868     		ldr	r0, [r7, #4]
 721 00ee 2021     		movs	r1, #32
 722 00f0 FFF7FEFF 		bl	write_data
 119:..\ugfx_2.6\drivers\gdisp\ILI9341/gdisp_lld_ILI9341.c **** 	write_index(g, 0xea);
 723              		.loc 2 119 0
 724 00f4 7868     		ldr	r0, [r7, #4]
 725 00f6 EA21     		movs	r1, #234
 726 00f8 FFF7FEFF 		bl	write_index
 120:..\ugfx_2.6\drivers\gdisp\ILI9341/gdisp_lld_ILI9341.c **** 	write_data(g, 0x00);
 727              		.loc 2 120 0
 728 00fc 7868     		ldr	r0, [r7, #4]
 729 00fe 0021     		movs	r1, #0
 730 0100 FFF7FEFF 		bl	write_data
 121:..\ugfx_2.6\drivers\gdisp\ILI9341/gdisp_lld_ILI9341.c **** 	write_data(g, 0x00);
 731              		.loc 2 121 0
 732 0104 7868     		ldr	r0, [r7, #4]
 733 0106 0021     		movs	r1, #0
 734 0108 FFF7FEFF 		bl	write_data
 122:..\ugfx_2.6\drivers\gdisp\ILI9341/gdisp_lld_ILI9341.c **** 	//------------power control------------------------------
 123:..\ugfx_2.6\drivers\gdisp\ILI9341/gdisp_lld_ILI9341.c **** 	write_index(g, 0xc0); //power control
 735              		.loc 2 123 0
 736 010c 7868     		ldr	r0, [r7, #4]
 737 010e C021     		movs	r1, #192
 738 0110 FFF7FEFF 		bl	write_index
 124:..\ugfx_2.6\drivers\gdisp\ILI9341/gdisp_lld_ILI9341.c **** 	write_data(g, 0x26);
 739              		.loc 2 124 0
 740 0114 7868     		ldr	r0, [r7, #4]
 741 0116 2621     		movs	r1, #38
 742 0118 FFF7FEFF 		bl	write_data
 125:..\ugfx_2.6\drivers\gdisp\ILI9341/gdisp_lld_ILI9341.c **** 	write_index(g, 0xc1); //power control
 743              		.loc 2 125 0
 744 011c 7868     		ldr	r0, [r7, #4]
 745 011e C121     		movs	r1, #193
 746 0120 FFF7FEFF 		bl	write_index
ARM GAS  C:\Users\joel\AppData\Local\Temp\ccu8lQ08.s 			page 18


 126:..\ugfx_2.6\drivers\gdisp\ILI9341/gdisp_lld_ILI9341.c **** 	write_data(g, 0x11);
 747              		.loc 2 126 0
 748 0124 7868     		ldr	r0, [r7, #4]
 749 0126 1121     		movs	r1, #17
 750 0128 FFF7FEFF 		bl	write_data
 127:..\ugfx_2.6\drivers\gdisp\ILI9341/gdisp_lld_ILI9341.c **** 	//--------------VCOM
 128:..\ugfx_2.6\drivers\gdisp\ILI9341/gdisp_lld_ILI9341.c **** 	write_index(g, 0xc5); //vcom control
 751              		.loc 2 128 0
 752 012c 7868     		ldr	r0, [r7, #4]
 753 012e C521     		movs	r1, #197
 754 0130 FFF7FEFF 		bl	write_index
 129:..\ugfx_2.6\drivers\gdisp\ILI9341/gdisp_lld_ILI9341.c **** 	write_data(g, 0x35);//35
 755              		.loc 2 129 0
 756 0134 7868     		ldr	r0, [r7, #4]
 757 0136 3521     		movs	r1, #53
 758 0138 FFF7FEFF 		bl	write_data
 130:..\ugfx_2.6\drivers\gdisp\ILI9341/gdisp_lld_ILI9341.c **** 	write_data(g, 0x3e);//3E
 759              		.loc 2 130 0
 760 013c 7868     		ldr	r0, [r7, #4]
 761 013e 3E21     		movs	r1, #62
 762 0140 FFF7FEFF 		bl	write_data
 131:..\ugfx_2.6\drivers\gdisp\ILI9341/gdisp_lld_ILI9341.c **** 	write_index(g, 0xc7); //vcom control
 763              		.loc 2 131 0
 764 0144 7868     		ldr	r0, [r7, #4]
 765 0146 C721     		movs	r1, #199
 766 0148 FFF7FEFF 		bl	write_index
 132:..\ugfx_2.6\drivers\gdisp\ILI9341/gdisp_lld_ILI9341.c **** 	write_data(g, 0xbe); // 0x94
 767              		.loc 2 132 0
 768 014c 7868     		ldr	r0, [r7, #4]
 769 014e BE21     		movs	r1, #190
 770 0150 FFF7FEFF 		bl	write_data
 133:..\ugfx_2.6\drivers\gdisp\ILI9341/gdisp_lld_ILI9341.c **** 	//------------memory access control------------------------
 134:..\ugfx_2.6\drivers\gdisp\ILI9341/gdisp_lld_ILI9341.c **** 	write_index(g, 0x36);
 771              		.loc 2 134 0
 772 0154 7868     		ldr	r0, [r7, #4]
 773 0156 3621     		movs	r1, #54
 774 0158 FFF7FEFF 		bl	write_index
 135:..\ugfx_2.6\drivers\gdisp\ILI9341/gdisp_lld_ILI9341.c **** 	// memory access control
 136:..\ugfx_2.6\drivers\gdisp\ILI9341/gdisp_lld_ILI9341.c **** 	write_data(g, 0x48); //0048 my,mx,mv,ml,BGR,mh,0.0
 775              		.loc 2 136 0
 776 015c 7868     		ldr	r0, [r7, #4]
 777 015e 4821     		movs	r1, #72
 778 0160 FFF7FEFF 		bl	write_data
 137:..\ugfx_2.6\drivers\gdisp\ILI9341/gdisp_lld_ILI9341.c **** 	write_index(g, 0x3a); // pixel format set
 779              		.loc 2 137 0
 780 0164 7868     		ldr	r0, [r7, #4]
 781 0166 3A21     		movs	r1, #58
 782 0168 FFF7FEFF 		bl	write_index
 138:..\ugfx_2.6\drivers\gdisp\ILI9341/gdisp_lld_ILI9341.c **** 	write_data(g, 0x55);//16bit /pixel
 783              		.loc 2 138 0
 784 016c 7868     		ldr	r0, [r7, #4]
 785 016e 5521     		movs	r1, #85
 786 0170 FFF7FEFF 		bl	write_data
 139:..\ugfx_2.6\drivers\gdisp\ILI9341/gdisp_lld_ILI9341.c **** 	//----------------- frame rate------------------------------
 140:..\ugfx_2.6\drivers\gdisp\ILI9341/gdisp_lld_ILI9341.c **** 	write_index(g, 0xb1);
 787              		.loc 2 140 0
 788 0174 7868     		ldr	r0, [r7, #4]
ARM GAS  C:\Users\joel\AppData\Local\Temp\ccu8lQ08.s 			page 19


 789 0176 B121     		movs	r1, #177
 790 0178 FFF7FEFF 		bl	write_index
 141:..\ugfx_2.6\drivers\gdisp\ILI9341/gdisp_lld_ILI9341.c **** 	// frame rate
 142:..\ugfx_2.6\drivers\gdisp\ILI9341/gdisp_lld_ILI9341.c **** 	write_data(g, 0x00);
 791              		.loc 2 142 0
 792 017c 7868     		ldr	r0, [r7, #4]
 793 017e 0021     		movs	r1, #0
 794 0180 FFF7FEFF 		bl	write_data
 143:..\ugfx_2.6\drivers\gdisp\ILI9341/gdisp_lld_ILI9341.c **** 	write_data(g, 0x1B); //70
 795              		.loc 2 143 0
 796 0184 7868     		ldr	r0, [r7, #4]
 797 0186 1B21     		movs	r1, #27
 798 0188 FFF7FEFF 		bl	write_data
 144:..\ugfx_2.6\drivers\gdisp\ILI9341/gdisp_lld_ILI9341.c **** 	//----------------Gamma---------------------------------
 145:..\ugfx_2.6\drivers\gdisp\ILI9341/gdisp_lld_ILI9341.c **** 	write_index(g, 0xf2); // 3Gamma Function Disable
 799              		.loc 2 145 0
 800 018c 7868     		ldr	r0, [r7, #4]
 801 018e F221     		movs	r1, #242
 802 0190 FFF7FEFF 		bl	write_index
 146:..\ugfx_2.6\drivers\gdisp\ILI9341/gdisp_lld_ILI9341.c **** 	write_data(g, 0x08);
 803              		.loc 2 146 0
 804 0194 7868     		ldr	r0, [r7, #4]
 805 0196 0821     		movs	r1, #8
 806 0198 FFF7FEFF 		bl	write_data
 147:..\ugfx_2.6\drivers\gdisp\ILI9341/gdisp_lld_ILI9341.c **** 	write_index(g, 0x26);
 807              		.loc 2 147 0
 808 019c 7868     		ldr	r0, [r7, #4]
 809 019e 2621     		movs	r1, #38
 810 01a0 FFF7FEFF 		bl	write_index
 148:..\ugfx_2.6\drivers\gdisp\ILI9341/gdisp_lld_ILI9341.c **** 	write_data(g, 0x01); // gamma set 4 gamma curve 01/02/04/08
 811              		.loc 2 148 0
 812 01a4 7868     		ldr	r0, [r7, #4]
 813 01a6 0121     		movs	r1, #1
 814 01a8 FFF7FEFF 		bl	write_data
 149:..\ugfx_2.6\drivers\gdisp\ILI9341/gdisp_lld_ILI9341.c **** 
 150:..\ugfx_2.6\drivers\gdisp\ILI9341/gdisp_lld_ILI9341.c **** 	write_index(g, 0xE0); //positive gamma correction
 815              		.loc 2 150 0
 816 01ac 7868     		ldr	r0, [r7, #4]
 817 01ae E021     		movs	r1, #224
 818 01b0 FFF7FEFF 		bl	write_index
 151:..\ugfx_2.6\drivers\gdisp\ILI9341/gdisp_lld_ILI9341.c **** 	write_data(g, 0x1f);
 819              		.loc 2 151 0
 820 01b4 7868     		ldr	r0, [r7, #4]
 821 01b6 1F21     		movs	r1, #31
 822 01b8 FFF7FEFF 		bl	write_data
 152:..\ugfx_2.6\drivers\gdisp\ILI9341/gdisp_lld_ILI9341.c **** 	write_data(g, 0x1a);
 823              		.loc 2 152 0
 824 01bc 7868     		ldr	r0, [r7, #4]
 825 01be 1A21     		movs	r1, #26
 826 01c0 FFF7FEFF 		bl	write_data
 153:..\ugfx_2.6\drivers\gdisp\ILI9341/gdisp_lld_ILI9341.c **** 	write_data(g, 0x18);
 827              		.loc 2 153 0
 828 01c4 7868     		ldr	r0, [r7, #4]
 829 01c6 1821     		movs	r1, #24
 830 01c8 FFF7FEFF 		bl	write_data
 154:..\ugfx_2.6\drivers\gdisp\ILI9341/gdisp_lld_ILI9341.c **** 	write_data(g, 0x0a);
 831              		.loc 2 154 0
ARM GAS  C:\Users\joel\AppData\Local\Temp\ccu8lQ08.s 			page 20


 832 01cc 7868     		ldr	r0, [r7, #4]
 833 01ce 0A21     		movs	r1, #10
 834 01d0 FFF7FEFF 		bl	write_data
 155:..\ugfx_2.6\drivers\gdisp\ILI9341/gdisp_lld_ILI9341.c **** 	write_data(g, 0x0f);
 835              		.loc 2 155 0
 836 01d4 7868     		ldr	r0, [r7, #4]
 837 01d6 0F21     		movs	r1, #15
 838 01d8 FFF7FEFF 		bl	write_data
 156:..\ugfx_2.6\drivers\gdisp\ILI9341/gdisp_lld_ILI9341.c **** 	write_data(g, 0x06);
 839              		.loc 2 156 0
 840 01dc 7868     		ldr	r0, [r7, #4]
 841 01de 0621     		movs	r1, #6
 842 01e0 FFF7FEFF 		bl	write_data
 157:..\ugfx_2.6\drivers\gdisp\ILI9341/gdisp_lld_ILI9341.c **** 	write_data(g, 0x45);
 843              		.loc 2 157 0
 844 01e4 7868     		ldr	r0, [r7, #4]
 845 01e6 4521     		movs	r1, #69
 846 01e8 FFF7FEFF 		bl	write_data
 158:..\ugfx_2.6\drivers\gdisp\ILI9341/gdisp_lld_ILI9341.c **** 	write_data(g, 0x87);
 847              		.loc 2 158 0
 848 01ec 7868     		ldr	r0, [r7, #4]
 849 01ee 8721     		movs	r1, #135
 850 01f0 FFF7FEFF 		bl	write_data
 159:..\ugfx_2.6\drivers\gdisp\ILI9341/gdisp_lld_ILI9341.c **** 	write_data(g, 0x32);
 851              		.loc 2 159 0
 852 01f4 7868     		ldr	r0, [r7, #4]
 853 01f6 3221     		movs	r1, #50
 854 01f8 FFF7FEFF 		bl	write_data
 160:..\ugfx_2.6\drivers\gdisp\ILI9341/gdisp_lld_ILI9341.c **** 	write_data(g, 0x0a);
 855              		.loc 2 160 0
 856 01fc 7868     		ldr	r0, [r7, #4]
 857 01fe 0A21     		movs	r1, #10
 858 0200 FFF7FEFF 		bl	write_data
 161:..\ugfx_2.6\drivers\gdisp\ILI9341/gdisp_lld_ILI9341.c **** 	write_data(g, 0x07);
 859              		.loc 2 161 0
 860 0204 7868     		ldr	r0, [r7, #4]
 861 0206 0721     		movs	r1, #7
 862 0208 FFF7FEFF 		bl	write_data
 162:..\ugfx_2.6\drivers\gdisp\ILI9341/gdisp_lld_ILI9341.c **** 	write_data(g, 0x02);
 863              		.loc 2 162 0
 864 020c 7868     		ldr	r0, [r7, #4]
 865 020e 0221     		movs	r1, #2
 866 0210 FFF7FEFF 		bl	write_data
 163:..\ugfx_2.6\drivers\gdisp\ILI9341/gdisp_lld_ILI9341.c **** 	write_data(g, 0x07);
 867              		.loc 2 163 0
 868 0214 7868     		ldr	r0, [r7, #4]
 869 0216 0721     		movs	r1, #7
 870 0218 FFF7FEFF 		bl	write_data
 164:..\ugfx_2.6\drivers\gdisp\ILI9341/gdisp_lld_ILI9341.c **** 	write_data(g, 0x05);
 871              		.loc 2 164 0
 872 021c 7868     		ldr	r0, [r7, #4]
 873 021e 0521     		movs	r1, #5
 874 0220 FFF7FEFF 		bl	write_data
 165:..\ugfx_2.6\drivers\gdisp\ILI9341/gdisp_lld_ILI9341.c **** 	write_data(g, 0x00);
 875              		.loc 2 165 0
 876 0224 7868     		ldr	r0, [r7, #4]
 877 0226 0021     		movs	r1, #0
ARM GAS  C:\Users\joel\AppData\Local\Temp\ccu8lQ08.s 			page 21


 878 0228 FFF7FEFF 		bl	write_data
 166:..\ugfx_2.6\drivers\gdisp\ILI9341/gdisp_lld_ILI9341.c **** 	write_index(g, 0xE1); //negamma correction
 879              		.loc 2 166 0
 880 022c 7868     		ldr	r0, [r7, #4]
 881 022e E121     		movs	r1, #225
 882 0230 FFF7FEFF 		bl	write_index
 167:..\ugfx_2.6\drivers\gdisp\ILI9341/gdisp_lld_ILI9341.c **** 	write_data(g, 0x00);
 883              		.loc 2 167 0
 884 0234 7868     		ldr	r0, [r7, #4]
 885 0236 0021     		movs	r1, #0
 886 0238 FFF7FEFF 		bl	write_data
 168:..\ugfx_2.6\drivers\gdisp\ILI9341/gdisp_lld_ILI9341.c **** 	write_data(g, 0x25);
 887              		.loc 2 168 0
 888 023c 7868     		ldr	r0, [r7, #4]
 889 023e 2521     		movs	r1, #37
 890 0240 FFF7FEFF 		bl	write_data
 169:..\ugfx_2.6\drivers\gdisp\ILI9341/gdisp_lld_ILI9341.c **** 	write_data(g, 0x27);
 891              		.loc 2 169 0
 892 0244 7868     		ldr	r0, [r7, #4]
 893 0246 2721     		movs	r1, #39
 894 0248 FFF7FEFF 		bl	write_data
 170:..\ugfx_2.6\drivers\gdisp\ILI9341/gdisp_lld_ILI9341.c **** 	write_data(g, 0x05);
 895              		.loc 2 170 0
 896 024c 7868     		ldr	r0, [r7, #4]
 897 024e 0521     		movs	r1, #5
 898 0250 FFF7FEFF 		bl	write_data
 171:..\ugfx_2.6\drivers\gdisp\ILI9341/gdisp_lld_ILI9341.c **** 	write_data(g, 0x10);
 899              		.loc 2 171 0
 900 0254 7868     		ldr	r0, [r7, #4]
 901 0256 1021     		movs	r1, #16
 902 0258 FFF7FEFF 		bl	write_data
 172:..\ugfx_2.6\drivers\gdisp\ILI9341/gdisp_lld_ILI9341.c **** 	write_data(g, 0x09);
 903              		.loc 2 172 0
 904 025c 7868     		ldr	r0, [r7, #4]
 905 025e 0921     		movs	r1, #9
 906 0260 FFF7FEFF 		bl	write_data
 173:..\ugfx_2.6\drivers\gdisp\ILI9341/gdisp_lld_ILI9341.c **** 	write_data(g, 0x3a);
 907              		.loc 2 173 0
 908 0264 7868     		ldr	r0, [r7, #4]
 909 0266 3A21     		movs	r1, #58
 910 0268 FFF7FEFF 		bl	write_data
 174:..\ugfx_2.6\drivers\gdisp\ILI9341/gdisp_lld_ILI9341.c **** 	write_data(g, 0x78);
 911              		.loc 2 174 0
 912 026c 7868     		ldr	r0, [r7, #4]
 913 026e 7821     		movs	r1, #120
 914 0270 FFF7FEFF 		bl	write_data
 175:..\ugfx_2.6\drivers\gdisp\ILI9341/gdisp_lld_ILI9341.c **** 	write_data(g, 0x4d);
 915              		.loc 2 175 0
 916 0274 7868     		ldr	r0, [r7, #4]
 917 0276 4D21     		movs	r1, #77
 918 0278 FFF7FEFF 		bl	write_data
 176:..\ugfx_2.6\drivers\gdisp\ILI9341/gdisp_lld_ILI9341.c **** 	write_data(g, 0x05);
 919              		.loc 2 176 0
 920 027c 7868     		ldr	r0, [r7, #4]
 921 027e 0521     		movs	r1, #5
 922 0280 FFF7FEFF 		bl	write_data
 177:..\ugfx_2.6\drivers\gdisp\ILI9341/gdisp_lld_ILI9341.c **** 	write_data(g, 0x18);
ARM GAS  C:\Users\joel\AppData\Local\Temp\ccu8lQ08.s 			page 22


 923              		.loc 2 177 0
 924 0284 7868     		ldr	r0, [r7, #4]
 925 0286 1821     		movs	r1, #24
 926 0288 FFF7FEFF 		bl	write_data
 178:..\ugfx_2.6\drivers\gdisp\ILI9341/gdisp_lld_ILI9341.c **** 	write_data(g, 0x0d);
 927              		.loc 2 178 0
 928 028c 7868     		ldr	r0, [r7, #4]
 929 028e 0D21     		movs	r1, #13
 930 0290 FFF7FEFF 		bl	write_data
 179:..\ugfx_2.6\drivers\gdisp\ILI9341/gdisp_lld_ILI9341.c **** 	write_data(g, 0x38);
 931              		.loc 2 179 0
 932 0294 7868     		ldr	r0, [r7, #4]
 933 0296 3821     		movs	r1, #56
 934 0298 FFF7FEFF 		bl	write_data
 180:..\ugfx_2.6\drivers\gdisp\ILI9341/gdisp_lld_ILI9341.c **** 	write_data(g, 0x3a);
 935              		.loc 2 180 0
 936 029c 7868     		ldr	r0, [r7, #4]
 937 029e 3A21     		movs	r1, #58
 938 02a0 FFF7FEFF 		bl	write_data
 181:..\ugfx_2.6\drivers\gdisp\ILI9341/gdisp_lld_ILI9341.c **** 	write_data(g, 0x1f);
 939              		.loc 2 181 0
 940 02a4 7868     		ldr	r0, [r7, #4]
 941 02a6 1F21     		movs	r1, #31
 942 02a8 FFF7FEFF 		bl	write_data
 182:..\ugfx_2.6\drivers\gdisp\ILI9341/gdisp_lld_ILI9341.c **** 	//--------------ddram ---------------------
 183:..\ugfx_2.6\drivers\gdisp\ILI9341/gdisp_lld_ILI9341.c **** 	write_index(g, 0x2a);
 943              		.loc 2 183 0
 944 02ac 7868     		ldr	r0, [r7, #4]
 945 02ae 2A21     		movs	r1, #42
 946 02b0 FFF7FEFF 		bl	write_index
 184:..\ugfx_2.6\drivers\gdisp\ILI9341/gdisp_lld_ILI9341.c **** 	// column set
 185:..\ugfx_2.6\drivers\gdisp\ILI9341/gdisp_lld_ILI9341.c **** 	// size = 239
 186:..\ugfx_2.6\drivers\gdisp\ILI9341/gdisp_lld_ILI9341.c **** 	write_data(g, 0x00);
 947              		.loc 2 186 0
 948 02b4 7868     		ldr	r0, [r7, #4]
 949 02b6 0021     		movs	r1, #0
 950 02b8 FFF7FEFF 		bl	write_data
 187:..\ugfx_2.6\drivers\gdisp\ILI9341/gdisp_lld_ILI9341.c **** 	write_data(g, 0x00);
 951              		.loc 2 187 0
 952 02bc 7868     		ldr	r0, [r7, #4]
 953 02be 0021     		movs	r1, #0
 954 02c0 FFF7FEFF 		bl	write_data
 188:..\ugfx_2.6\drivers\gdisp\ILI9341/gdisp_lld_ILI9341.c **** 	write_data(g, 0x00);
 955              		.loc 2 188 0
 956 02c4 7868     		ldr	r0, [r7, #4]
 957 02c6 0021     		movs	r1, #0
 958 02c8 FFF7FEFF 		bl	write_data
 189:..\ugfx_2.6\drivers\gdisp\ILI9341/gdisp_lld_ILI9341.c **** 	write_data(g, 0xEF);
 959              		.loc 2 189 0
 960 02cc 7868     		ldr	r0, [r7, #4]
 961 02ce EF21     		movs	r1, #239
 962 02d0 FFF7FEFF 		bl	write_data
 190:..\ugfx_2.6\drivers\gdisp\ILI9341/gdisp_lld_ILI9341.c **** 	write_index(g, 0x2b);
 963              		.loc 2 190 0
 964 02d4 7868     		ldr	r0, [r7, #4]
 965 02d6 2B21     		movs	r1, #43
 966 02d8 FFF7FEFF 		bl	write_index
ARM GAS  C:\Users\joel\AppData\Local\Temp\ccu8lQ08.s 			page 23


 191:..\ugfx_2.6\drivers\gdisp\ILI9341/gdisp_lld_ILI9341.c **** 	// page address set
 192:..\ugfx_2.6\drivers\gdisp\ILI9341/gdisp_lld_ILI9341.c **** 	// size = 319
 193:..\ugfx_2.6\drivers\gdisp\ILI9341/gdisp_lld_ILI9341.c **** 	write_data(g, 0x00);
 967              		.loc 2 193 0
 968 02dc 7868     		ldr	r0, [r7, #4]
 969 02de 0021     		movs	r1, #0
 970 02e0 FFF7FEFF 		bl	write_data
 194:..\ugfx_2.6\drivers\gdisp\ILI9341/gdisp_lld_ILI9341.c **** 	write_data(g, 0x00);
 971              		.loc 2 194 0
 972 02e4 7868     		ldr	r0, [r7, #4]
 973 02e6 0021     		movs	r1, #0
 974 02e8 FFF7FEFF 		bl	write_data
 195:..\ugfx_2.6\drivers\gdisp\ILI9341/gdisp_lld_ILI9341.c **** 	write_data(g, 0x01);
 975              		.loc 2 195 0
 976 02ec 7868     		ldr	r0, [r7, #4]
 977 02ee 0121     		movs	r1, #1
 978 02f0 FFF7FEFF 		bl	write_data
 196:..\ugfx_2.6\drivers\gdisp\ILI9341/gdisp_lld_ILI9341.c **** 	write_data(g, 0x3F);
 979              		.loc 2 196 0
 980 02f4 7868     		ldr	r0, [r7, #4]
 981 02f6 3F21     		movs	r1, #63
 982 02f8 FFF7FEFF 		bl	write_data
 197:..\ugfx_2.6\drivers\gdisp\ILI9341/gdisp_lld_ILI9341.c **** 	// write_index(g, 0x34);
 198:..\ugfx_2.6\drivers\gdisp\ILI9341/gdisp_lld_ILI9341.c **** 	//write_index(g, 0x35);
 199:..\ugfx_2.6\drivers\gdisp\ILI9341/gdisp_lld_ILI9341.c **** 	// tearing effect off
 200:..\ugfx_2.6\drivers\gdisp\ILI9341/gdisp_lld_ILI9341.c **** 	// tearing effect on
 201:..\ugfx_2.6\drivers\gdisp\ILI9341/gdisp_lld_ILI9341.c **** 	// write_index(g, 0xb4); // display inversion
 202:..\ugfx_2.6\drivers\gdisp\ILI9341/gdisp_lld_ILI9341.c **** 	// write_data(g, 0x00);
 203:..\ugfx_2.6\drivers\gdisp\ILI9341/gdisp_lld_ILI9341.c **** 	write_index(g, 0xb7); //entry mode set
 983              		.loc 2 203 0
 984 02fc 7868     		ldr	r0, [r7, #4]
 985 02fe B721     		movs	r1, #183
 986 0300 FFF7FEFF 		bl	write_index
 204:..\ugfx_2.6\drivers\gdisp\ILI9341/gdisp_lld_ILI9341.c **** 	write_data(g, 0x07);
 987              		.loc 2 204 0
 988 0304 7868     		ldr	r0, [r7, #4]
 989 0306 0721     		movs	r1, #7
 990 0308 FFF7FEFF 		bl	write_data
 205:..\ugfx_2.6\drivers\gdisp\ILI9341/gdisp_lld_ILI9341.c **** 	//-----------------display---------------------
 206:..\ugfx_2.6\drivers\gdisp\ILI9341/gdisp_lld_ILI9341.c **** 	write_index(g, 0xb6);
 991              		.loc 2 206 0
 992 030c 7868     		ldr	r0, [r7, #4]
 993 030e B621     		movs	r1, #182
 994 0310 FFF7FEFF 		bl	write_index
 207:..\ugfx_2.6\drivers\gdisp\ILI9341/gdisp_lld_ILI9341.c **** 	// display function control
 208:..\ugfx_2.6\drivers\gdisp\ILI9341/gdisp_lld_ILI9341.c **** 	write_data(g, 0x0a);
 995              		.loc 2 208 0
 996 0314 7868     		ldr	r0, [r7, #4]
 997 0316 0A21     		movs	r1, #10
 998 0318 FFF7FEFF 		bl	write_data
 209:..\ugfx_2.6\drivers\gdisp\ILI9341/gdisp_lld_ILI9341.c **** 	write_data(g, 0x82);
 999              		.loc 2 209 0
 1000 031c 7868     		ldr	r0, [r7, #4]
 1001 031e 8221     		movs	r1, #130
 1002 0320 FFF7FEFF 		bl	write_data
 210:..\ugfx_2.6\drivers\gdisp\ILI9341/gdisp_lld_ILI9341.c **** 	write_data(g, 0x27);
 1003              		.loc 2 210 0
ARM GAS  C:\Users\joel\AppData\Local\Temp\ccu8lQ08.s 			page 24


 1004 0324 7868     		ldr	r0, [r7, #4]
 1005 0326 2721     		movs	r1, #39
 1006 0328 FFF7FEFF 		bl	write_data
 211:..\ugfx_2.6\drivers\gdisp\ILI9341/gdisp_lld_ILI9341.c **** 	write_data(g, 0x00);
 1007              		.loc 2 211 0
 1008 032c 7868     		ldr	r0, [r7, #4]
 1009 032e 0021     		movs	r1, #0
 1010 0330 FFF7FEFF 		bl	write_data
 212:..\ugfx_2.6\drivers\gdisp\ILI9341/gdisp_lld_ILI9341.c **** 	write_index(g, 0x11); //sleep out
 1011              		.loc 2 212 0
 1012 0334 7868     		ldr	r0, [r7, #4]
 1013 0336 1121     		movs	r1, #17
 1014 0338 FFF7FEFF 		bl	write_index
 213:..\ugfx_2.6\drivers\gdisp\ILI9341/gdisp_lld_ILI9341.c **** 	gfxSleepMilliseconds(100);
 1015              		.loc 2 213 0
 1016 033c 6420     		movs	r0, #100
 1017 033e FFF7FEFF 		bl	gfxSleepMilliseconds
 214:..\ugfx_2.6\drivers\gdisp\ILI9341/gdisp_lld_ILI9341.c **** 	write_index(g, 0x29); // display on
 1018              		.loc 2 214 0
 1019 0342 7868     		ldr	r0, [r7, #4]
 1020 0344 2921     		movs	r1, #41
 1021 0346 FFF7FEFF 		bl	write_index
 215:..\ugfx_2.6\drivers\gdisp\ILI9341/gdisp_lld_ILI9341.c **** 	gfxSleepMilliseconds(100);
 1022              		.loc 2 215 0
 1023 034a 6420     		movs	r0, #100
 1024 034c FFF7FEFF 		bl	gfxSleepMilliseconds
 216:..\ugfx_2.6\drivers\gdisp\ILI9341/gdisp_lld_ILI9341.c **** 
 217:..\ugfx_2.6\drivers\gdisp\ILI9341/gdisp_lld_ILI9341.c ****     // Finish Init
 218:..\ugfx_2.6\drivers\gdisp\ILI9341/gdisp_lld_ILI9341.c ****     post_init_board(g);
 1025              		.loc 2 218 0
 1026 0350 7868     		ldr	r0, [r7, #4]
 1027 0352 FFF7FEFF 		bl	post_init_board
 219:..\ugfx_2.6\drivers\gdisp\ILI9341/gdisp_lld_ILI9341.c **** 
 220:..\ugfx_2.6\drivers\gdisp\ILI9341/gdisp_lld_ILI9341.c ****  	// Release the bus
 221:..\ugfx_2.6\drivers\gdisp\ILI9341/gdisp_lld_ILI9341.c **** 	release_bus(g);
 1028              		.loc 2 221 0
 1029 0356 7868     		ldr	r0, [r7, #4]
 1030 0358 FFF7FEFF 		bl	release_bus
 222:..\ugfx_2.6\drivers\gdisp\ILI9341/gdisp_lld_ILI9341.c **** 	
 223:..\ugfx_2.6\drivers\gdisp\ILI9341/gdisp_lld_ILI9341.c **** 	/* Turn on the back-light */
 224:..\ugfx_2.6\drivers\gdisp\ILI9341/gdisp_lld_ILI9341.c **** 	set_backlight(g, GDISP_INITIAL_BACKLIGHT);
 1031              		.loc 2 224 0
 1032 035c 7868     		ldr	r0, [r7, #4]
 1033 035e 6421     		movs	r1, #100
 1034 0360 FFF7FEFF 		bl	set_backlight
 225:..\ugfx_2.6\drivers\gdisp\ILI9341/gdisp_lld_ILI9341.c **** 
 226:..\ugfx_2.6\drivers\gdisp\ILI9341/gdisp_lld_ILI9341.c **** 	/* Initialise the GDISP structure */
 227:..\ugfx_2.6\drivers\gdisp\ILI9341/gdisp_lld_ILI9341.c **** 	g->g.Width = GDISP_SCREEN_WIDTH;
 1035              		.loc 2 227 0
 1036 0364 7B68     		ldr	r3, [r7, #4]
 1037 0366 F022     		movs	r2, #240
 1038 0368 1A81     		strh	r2, [r3, #8]	@ movhi
 228:..\ugfx_2.6\drivers\gdisp\ILI9341/gdisp_lld_ILI9341.c **** 	g->g.Height = GDISP_SCREEN_HEIGHT;
 1039              		.loc 2 228 0
 1040 036a 7B68     		ldr	r3, [r7, #4]
 1041 036c 4FF4A072 		mov	r2, #320
 1042 0370 5A81     		strh	r2, [r3, #10]	@ movhi
ARM GAS  C:\Users\joel\AppData\Local\Temp\ccu8lQ08.s 			page 25


 229:..\ugfx_2.6\drivers\gdisp\ILI9341/gdisp_lld_ILI9341.c **** 	g->g.Orientation = GDISP_ROTATE_0;
 1043              		.loc 2 229 0
 1044 0372 7B68     		ldr	r3, [r7, #4]
 1045 0374 0022     		movs	r2, #0
 1046 0376 9A81     		strh	r2, [r3, #12]	@ movhi
 230:..\ugfx_2.6\drivers\gdisp\ILI9341/gdisp_lld_ILI9341.c **** 	g->g.Powermode = powerOn;
 1047              		.loc 2 230 0
 1048 0378 7B68     		ldr	r3, [r7, #4]
 1049 037a 0322     		movs	r2, #3
 1050 037c 9A73     		strb	r2, [r3, #14]
 231:..\ugfx_2.6\drivers\gdisp\ILI9341/gdisp_lld_ILI9341.c **** 	g->g.Backlight = GDISP_INITIAL_BACKLIGHT;
 1051              		.loc 2 231 0
 1052 037e 7B68     		ldr	r3, [r7, #4]
 1053 0380 6422     		movs	r2, #100
 1054 0382 DA73     		strb	r2, [r3, #15]
 232:..\ugfx_2.6\drivers\gdisp\ILI9341/gdisp_lld_ILI9341.c **** 	g->g.Contrast = GDISP_INITIAL_CONTRAST;
 1055              		.loc 2 232 0
 1056 0384 7B68     		ldr	r3, [r7, #4]
 1057 0386 3222     		movs	r2, #50
 1058 0388 1A74     		strb	r2, [r3, #16]
 233:..\ugfx_2.6\drivers\gdisp\ILI9341/gdisp_lld_ILI9341.c **** 	return TRUE;
 1059              		.loc 2 233 0
 1060 038a FF23     		movs	r3, #255
 234:..\ugfx_2.6\drivers\gdisp\ILI9341/gdisp_lld_ILI9341.c **** }
 1061              		.loc 2 234 0
 1062 038c 1846     		mov	r0, r3
 1063 038e 0837     		adds	r7, r7, #8
 1064              		.cfi_def_cfa_offset 8
 1065 0390 BD46     		mov	sp, r7
 1066              		.cfi_def_cfa_register 13
 1067              		@ sp needed
 1068 0392 80BD     		pop	{r7, pc}
 1069              		.cfi_endproc
 1070              	.LFE75:
 1071              		.size	gdisp_lld_init, .-gdisp_lld_init
 1072              		.section	.text.gdisp_lld_write_start,"ax",%progbits
 1073              		.align	2
 1074              		.global	gdisp_lld_write_start
 1075              		.thumb
 1076              		.thumb_func
 1077              		.type	gdisp_lld_write_start, %function
 1078              	gdisp_lld_write_start:
 1079              	.LFB76:
 235:..\ugfx_2.6\drivers\gdisp\ILI9341/gdisp_lld_ILI9341.c **** 
 236:..\ugfx_2.6\drivers\gdisp\ILI9341/gdisp_lld_ILI9341.c **** #if GDISP_HARDWARE_STREAM_WRITE
 237:..\ugfx_2.6\drivers\gdisp\ILI9341/gdisp_lld_ILI9341.c **** 	LLDSPEC	void gdisp_lld_write_start(GDisplay *g) {
 1080              		.loc 2 237 0
 1081              		.cfi_startproc
 1082              		@ args = 0, pretend = 0, frame = 8
 1083              		@ frame_needed = 1, uses_anonymous_args = 0
 1084 0000 80B5     		push	{r7, lr}
 1085              		.cfi_def_cfa_offset 8
 1086              		.cfi_offset 7, -8
 1087              		.cfi_offset 14, -4
 1088 0002 82B0     		sub	sp, sp, #8
 1089              		.cfi_def_cfa_offset 16
 1090 0004 00AF     		add	r7, sp, #0
ARM GAS  C:\Users\joel\AppData\Local\Temp\ccu8lQ08.s 			page 26


 1091              		.cfi_def_cfa_register 7
 1092 0006 7860     		str	r0, [r7, #4]
 238:..\ugfx_2.6\drivers\gdisp\ILI9341/gdisp_lld_ILI9341.c **** 		acquire_bus(g);
 1093              		.loc 2 238 0
 1094 0008 7868     		ldr	r0, [r7, #4]
 1095 000a FFF7FEFF 		bl	acquire_bus
 239:..\ugfx_2.6\drivers\gdisp\ILI9341/gdisp_lld_ILI9341.c **** 		set_viewport(g);
 1096              		.loc 2 239 0
 1097 000e 7868     		ldr	r0, [r7, #4]
 1098 0010 FFF7FEFF 		bl	set_viewport
 240:..\ugfx_2.6\drivers\gdisp\ILI9341/gdisp_lld_ILI9341.c **** 		write_index(g, 0x2C);
 1099              		.loc 2 240 0
 1100 0014 7868     		ldr	r0, [r7, #4]
 1101 0016 2C21     		movs	r1, #44
 1102 0018 FFF7FEFF 		bl	write_index
 241:..\ugfx_2.6\drivers\gdisp\ILI9341/gdisp_lld_ILI9341.c **** 	}
 1103              		.loc 2 241 0
 1104 001c 0837     		adds	r7, r7, #8
 1105              		.cfi_def_cfa_offset 8
 1106 001e BD46     		mov	sp, r7
 1107              		.cfi_def_cfa_register 13
 1108              		@ sp needed
 1109 0020 80BD     		pop	{r7, pc}
 1110              		.cfi_endproc
 1111              	.LFE76:
 1112              		.size	gdisp_lld_write_start, .-gdisp_lld_write_start
 1113 0022 00BF     		.section	.text.gdisp_lld_write_color,"ax",%progbits
 1114              		.align	2
 1115              		.global	gdisp_lld_write_color
 1116              		.thumb
 1117              		.thumb_func
 1118              		.type	gdisp_lld_write_color, %function
 1119              	gdisp_lld_write_color:
 1120              	.LFB77:
 242:..\ugfx_2.6\drivers\gdisp\ILI9341/gdisp_lld_ILI9341.c **** 	LLDSPEC	void gdisp_lld_write_color(GDisplay *g) {
 1121              		.loc 2 242 0
 1122              		.cfi_startproc
 1123              		@ args = 0, pretend = 0, frame = 8
 1124              		@ frame_needed = 1, uses_anonymous_args = 0
 1125 0000 80B5     		push	{r7, lr}
 1126              		.cfi_def_cfa_offset 8
 1127              		.cfi_offset 7, -8
 1128              		.cfi_offset 14, -4
 1129 0002 82B0     		sub	sp, sp, #8
 1130              		.cfi_def_cfa_offset 16
 1131 0004 00AF     		add	r7, sp, #0
 1132              		.cfi_def_cfa_register 7
 1133 0006 7860     		str	r0, [r7, #4]
 243:..\ugfx_2.6\drivers\gdisp\ILI9341/gdisp_lld_ILI9341.c **** 		write_data16(g, gdispColor2Native(g->p.color));
 1134              		.loc 2 243 0
 1135 0008 7B68     		ldr	r3, [r7, #4]
 1136 000a 1B8F     		ldrh	r3, [r3, #56]
 1137 000c 1B0A     		lsrs	r3, r3, #8
 1138 000e 9BB2     		uxth	r3, r3
 1139 0010 7868     		ldr	r0, [r7, #4]
 1140 0012 1946     		mov	r1, r3
 1141 0014 FFF7FEFF 		bl	write_data
ARM GAS  C:\Users\joel\AppData\Local\Temp\ccu8lQ08.s 			page 27


 1142 0018 7B68     		ldr	r3, [r7, #4]
 1143 001a 1B8F     		ldrh	r3, [r3, #56]
 1144 001c DBB2     		uxtb	r3, r3
 1145 001e 9BB2     		uxth	r3, r3
 1146 0020 7868     		ldr	r0, [r7, #4]
 1147 0022 1946     		mov	r1, r3
 1148 0024 FFF7FEFF 		bl	write_data
 244:..\ugfx_2.6\drivers\gdisp\ILI9341/gdisp_lld_ILI9341.c **** 	}
 1149              		.loc 2 244 0
 1150 0028 0837     		adds	r7, r7, #8
 1151              		.cfi_def_cfa_offset 8
 1152 002a BD46     		mov	sp, r7
 1153              		.cfi_def_cfa_register 13
 1154              		@ sp needed
 1155 002c 80BD     		pop	{r7, pc}
 1156              		.cfi_endproc
 1157              	.LFE77:
 1158              		.size	gdisp_lld_write_color, .-gdisp_lld_write_color
 1159 002e 00BF     		.section	.text.gdisp_lld_write_stop,"ax",%progbits
 1160              		.align	2
 1161              		.global	gdisp_lld_write_stop
 1162              		.thumb
 1163              		.thumb_func
 1164              		.type	gdisp_lld_write_stop, %function
 1165              	gdisp_lld_write_stop:
 1166              	.LFB78:
 245:..\ugfx_2.6\drivers\gdisp\ILI9341/gdisp_lld_ILI9341.c **** 	LLDSPEC	void gdisp_lld_write_stop(GDisplay *g) {
 1167              		.loc 2 245 0
 1168              		.cfi_startproc
 1169              		@ args = 0, pretend = 0, frame = 8
 1170              		@ frame_needed = 1, uses_anonymous_args = 0
 1171 0000 80B5     		push	{r7, lr}
 1172              		.cfi_def_cfa_offset 8
 1173              		.cfi_offset 7, -8
 1174              		.cfi_offset 14, -4
 1175 0002 82B0     		sub	sp, sp, #8
 1176              		.cfi_def_cfa_offset 16
 1177 0004 00AF     		add	r7, sp, #0
 1178              		.cfi_def_cfa_register 7
 1179 0006 7860     		str	r0, [r7, #4]
 246:..\ugfx_2.6\drivers\gdisp\ILI9341/gdisp_lld_ILI9341.c **** 		release_bus(g);
 1180              		.loc 2 246 0
 1181 0008 7868     		ldr	r0, [r7, #4]
 1182 000a FFF7FEFF 		bl	release_bus
 247:..\ugfx_2.6\drivers\gdisp\ILI9341/gdisp_lld_ILI9341.c **** 	}
 1183              		.loc 2 247 0
 1184 000e 0837     		adds	r7, r7, #8
 1185              		.cfi_def_cfa_offset 8
 1186 0010 BD46     		mov	sp, r7
 1187              		.cfi_def_cfa_register 13
 1188              		@ sp needed
 1189 0012 80BD     		pop	{r7, pc}
 1190              		.cfi_endproc
 1191              	.LFE78:
 1192              		.size	gdisp_lld_write_stop, .-gdisp_lld_write_stop
 1193              		.section	.text.gdisp_lld_read_start,"ax",%progbits
 1194              		.align	2
ARM GAS  C:\Users\joel\AppData\Local\Temp\ccu8lQ08.s 			page 28


 1195              		.global	gdisp_lld_read_start
 1196              		.thumb
 1197              		.thumb_func
 1198              		.type	gdisp_lld_read_start, %function
 1199              	gdisp_lld_read_start:
 1200              	.LFB79:
 248:..\ugfx_2.6\drivers\gdisp\ILI9341/gdisp_lld_ILI9341.c **** #endif
 249:..\ugfx_2.6\drivers\gdisp\ILI9341/gdisp_lld_ILI9341.c **** 
 250:..\ugfx_2.6\drivers\gdisp\ILI9341/gdisp_lld_ILI9341.c **** #if GDISP_HARDWARE_STREAM_READ
 251:..\ugfx_2.6\drivers\gdisp\ILI9341/gdisp_lld_ILI9341.c **** 	LLDSPEC	void gdisp_lld_read_start(GDisplay *g) {
 1201              		.loc 2 251 0
 1202              		.cfi_startproc
 1203              		@ args = 0, pretend = 0, frame = 16
 1204              		@ frame_needed = 1, uses_anonymous_args = 0
 1205 0000 80B5     		push	{r7, lr}
 1206              		.cfi_def_cfa_offset 8
 1207              		.cfi_offset 7, -8
 1208              		.cfi_offset 14, -4
 1209 0002 84B0     		sub	sp, sp, #16
 1210              		.cfi_def_cfa_offset 24
 1211 0004 00AF     		add	r7, sp, #0
 1212              		.cfi_def_cfa_register 7
 1213 0006 7860     		str	r0, [r7, #4]
 252:..\ugfx_2.6\drivers\gdisp\ILI9341/gdisp_lld_ILI9341.c **** 		acquire_bus(g);
 1214              		.loc 2 252 0
 1215 0008 7868     		ldr	r0, [r7, #4]
 1216 000a FFF7FEFF 		bl	acquire_bus
 253:..\ugfx_2.6\drivers\gdisp\ILI9341/gdisp_lld_ILI9341.c **** 		set_viewport(g);
 1217              		.loc 2 253 0
 1218 000e 7868     		ldr	r0, [r7, #4]
 1219 0010 FFF7FEFF 		bl	set_viewport
 254:..\ugfx_2.6\drivers\gdisp\ILI9341/gdisp_lld_ILI9341.c **** 		write_index(g, 0x2E);
 1220              		.loc 2 254 0
 1221 0014 7868     		ldr	r0, [r7, #4]
 1222 0016 2E21     		movs	r1, #46
 1223 0018 FFF7FEFF 		bl	write_index
 255:..\ugfx_2.6\drivers\gdisp\ILI9341/gdisp_lld_ILI9341.c **** 		setreadmode(g);
 1224              		.loc 2 255 0
 1225 001c 7868     		ldr	r0, [r7, #4]
 1226 001e FFF7FEFF 		bl	setreadmode
 1227              	.LBB2:
 256:..\ugfx_2.6\drivers\gdisp\ILI9341/gdisp_lld_ILI9341.c **** 		dummy_read(g);
 1228              		.loc 2 256 0
 1229 0022 7868     		ldr	r0, [r7, #4]
 1230 0024 FFF7FEFF 		bl	read_data
 1231 0028 0346     		mov	r3, r0
 1232 002a FB81     		strh	r3, [r7, #14]	@ movhi
 1233 002c FB89     		ldrh	r3, [r7, #14]	@ movhi
 1234              	.LBE2:
 257:..\ugfx_2.6\drivers\gdisp\ILI9341/gdisp_lld_ILI9341.c **** 	}
 1235              		.loc 2 257 0
 1236 002e 1037     		adds	r7, r7, #16
 1237              		.cfi_def_cfa_offset 8
 1238 0030 BD46     		mov	sp, r7
 1239              		.cfi_def_cfa_register 13
 1240              		@ sp needed
 1241 0032 80BD     		pop	{r7, pc}
ARM GAS  C:\Users\joel\AppData\Local\Temp\ccu8lQ08.s 			page 29


 1242              		.cfi_endproc
 1243              	.LFE79:
 1244              		.size	gdisp_lld_read_start, .-gdisp_lld_read_start
 1245              		.section	.text.gdisp_lld_read_color,"ax",%progbits
 1246              		.align	2
 1247              		.global	gdisp_lld_read_color
 1248              		.thumb
 1249              		.thumb_func
 1250              		.type	gdisp_lld_read_color, %function
 1251              	gdisp_lld_read_color:
 1252              	.LFB80:
 258:..\ugfx_2.6\drivers\gdisp\ILI9341/gdisp_lld_ILI9341.c **** 	LLDSPEC	color_t gdisp_lld_read_color(GDisplay *g) {
 1253              		.loc 2 258 0
 1254              		.cfi_startproc
 1255              		@ args = 0, pretend = 0, frame = 16
 1256              		@ frame_needed = 1, uses_anonymous_args = 0
 1257 0000 80B5     		push	{r7, lr}
 1258              		.cfi_def_cfa_offset 8
 1259              		.cfi_offset 7, -8
 1260              		.cfi_offset 14, -4
 1261 0002 84B0     		sub	sp, sp, #16
 1262              		.cfi_def_cfa_offset 24
 1263 0004 00AF     		add	r7, sp, #0
 1264              		.cfi_def_cfa_register 7
 1265 0006 7860     		str	r0, [r7, #4]
 259:..\ugfx_2.6\drivers\gdisp\ILI9341/gdisp_lld_ILI9341.c **** 		uint16_t	data;
 260:..\ugfx_2.6\drivers\gdisp\ILI9341/gdisp_lld_ILI9341.c **** 
 261:..\ugfx_2.6\drivers\gdisp\ILI9341/gdisp_lld_ILI9341.c **** 		data = read_data(g);
 1266              		.loc 2 261 0
 1267 0008 7868     		ldr	r0, [r7, #4]
 1268 000a FFF7FEFF 		bl	read_data
 1269 000e 0346     		mov	r3, r0
 1270 0010 FB81     		strh	r3, [r7, #14]	@ movhi
 262:..\ugfx_2.6\drivers\gdisp\ILI9341/gdisp_lld_ILI9341.c **** 		return gdispNative2Color(data);
 1271              		.loc 2 262 0
 1272 0012 FB89     		ldrh	r3, [r7, #14]
 263:..\ugfx_2.6\drivers\gdisp\ILI9341/gdisp_lld_ILI9341.c **** 	}
 1273              		.loc 2 263 0
 1274 0014 1846     		mov	r0, r3
 1275 0016 1037     		adds	r7, r7, #16
 1276              		.cfi_def_cfa_offset 8
 1277 0018 BD46     		mov	sp, r7
 1278              		.cfi_def_cfa_register 13
 1279              		@ sp needed
 1280 001a 80BD     		pop	{r7, pc}
 1281              		.cfi_endproc
 1282              	.LFE80:
 1283              		.size	gdisp_lld_read_color, .-gdisp_lld_read_color
 1284              		.section	.text.gdisp_lld_read_stop,"ax",%progbits
 1285              		.align	2
 1286              		.global	gdisp_lld_read_stop
 1287              		.thumb
 1288              		.thumb_func
 1289              		.type	gdisp_lld_read_stop, %function
 1290              	gdisp_lld_read_stop:
 1291              	.LFB81:
 264:..\ugfx_2.6\drivers\gdisp\ILI9341/gdisp_lld_ILI9341.c **** 	LLDSPEC	void gdisp_lld_read_stop(GDisplay *g) {
ARM GAS  C:\Users\joel\AppData\Local\Temp\ccu8lQ08.s 			page 30


 1292              		.loc 2 264 0
 1293              		.cfi_startproc
 1294              		@ args = 0, pretend = 0, frame = 8
 1295              		@ frame_needed = 1, uses_anonymous_args = 0
 1296 0000 80B5     		push	{r7, lr}
 1297              		.cfi_def_cfa_offset 8
 1298              		.cfi_offset 7, -8
 1299              		.cfi_offset 14, -4
 1300 0002 82B0     		sub	sp, sp, #8
 1301              		.cfi_def_cfa_offset 16
 1302 0004 00AF     		add	r7, sp, #0
 1303              		.cfi_def_cfa_register 7
 1304 0006 7860     		str	r0, [r7, #4]
 265:..\ugfx_2.6\drivers\gdisp\ILI9341/gdisp_lld_ILI9341.c **** 		setwritemode(g);
 1305              		.loc 2 265 0
 1306 0008 7868     		ldr	r0, [r7, #4]
 1307 000a FFF7FEFF 		bl	setwritemode
 266:..\ugfx_2.6\drivers\gdisp\ILI9341/gdisp_lld_ILI9341.c **** 		release_bus(g);
 1308              		.loc 2 266 0
 1309 000e 7868     		ldr	r0, [r7, #4]
 1310 0010 FFF7FEFF 		bl	release_bus
 267:..\ugfx_2.6\drivers\gdisp\ILI9341/gdisp_lld_ILI9341.c **** 	}
 1311              		.loc 2 267 0
 1312 0014 0837     		adds	r7, r7, #8
 1313              		.cfi_def_cfa_offset 8
 1314 0016 BD46     		mov	sp, r7
 1315              		.cfi_def_cfa_register 13
 1316              		@ sp needed
 1317 0018 80BD     		pop	{r7, pc}
 1318              		.cfi_endproc
 1319              	.LFE81:
 1320              		.size	gdisp_lld_read_stop, .-gdisp_lld_read_stop
 1321 001a 00BF     		.section	.text.gdisp_lld_control,"ax",%progbits
 1322              		.align	2
 1323              		.global	gdisp_lld_control
 1324              		.thumb
 1325              		.thumb_func
 1326              		.type	gdisp_lld_control, %function
 1327              	gdisp_lld_control:
 1328              	.LFB82:
 268:..\ugfx_2.6\drivers\gdisp\ILI9341/gdisp_lld_ILI9341.c **** #endif
 269:..\ugfx_2.6\drivers\gdisp\ILI9341/gdisp_lld_ILI9341.c **** 
 270:..\ugfx_2.6\drivers\gdisp\ILI9341/gdisp_lld_ILI9341.c **** #if GDISP_NEED_CONTROL && GDISP_HARDWARE_CONTROL
 271:..\ugfx_2.6\drivers\gdisp\ILI9341/gdisp_lld_ILI9341.c **** 	LLDSPEC void gdisp_lld_control(GDisplay *g) {
 1329              		.loc 2 271 0
 1330              		.cfi_startproc
 1331              		@ args = 0, pretend = 0, frame = 8
 1332              		@ frame_needed = 1, uses_anonymous_args = 0
 1333 0000 80B5     		push	{r7, lr}
 1334              		.cfi_def_cfa_offset 8
 1335              		.cfi_offset 7, -8
 1336              		.cfi_offset 14, -4
 1337 0002 82B0     		sub	sp, sp, #8
 1338              		.cfi_def_cfa_offset 16
 1339 0004 00AF     		add	r7, sp, #0
 1340              		.cfi_def_cfa_register 7
 1341 0006 7860     		str	r0, [r7, #4]
ARM GAS  C:\Users\joel\AppData\Local\Temp\ccu8lQ08.s 			page 31


 272:..\ugfx_2.6\drivers\gdisp\ILI9341/gdisp_lld_ILI9341.c **** 		switch(g->p.x) {
 1342              		.loc 2 272 0
 1343 0008 7B68     		ldr	r3, [r7, #4]
 1344 000a 1B8D     		ldrh	r3, [r3, #40]
 1345 000c 1BB2     		sxth	r3, r3
 1346 000e 012B     		cmp	r3, #1
 1347 0010 3CD0     		beq	.L27
 1348 0012 022B     		cmp	r3, #2
 1349 0014 00F0B080 		beq	.L28
 1350 0018 002B     		cmp	r3, #0
 1351 001a 00D0     		beq	.L29
 273:..\ugfx_2.6\drivers\gdisp\ILI9341/gdisp_lld_ILI9341.c **** 		case GDISP_CONTROL_POWER:
 274:..\ugfx_2.6\drivers\gdisp\ILI9341/gdisp_lld_ILI9341.c **** 			if (g->g.Powermode == (powermode_t)g->p.ptr)
 275:..\ugfx_2.6\drivers\gdisp\ILI9341/gdisp_lld_ILI9341.c **** 				return;
 276:..\ugfx_2.6\drivers\gdisp\ILI9341/gdisp_lld_ILI9341.c **** 			switch((powermode_t)g->p.ptr) {
 277:..\ugfx_2.6\drivers\gdisp\ILI9341/gdisp_lld_ILI9341.c **** 			case powerOff:
 278:..\ugfx_2.6\drivers\gdisp\ILI9341/gdisp_lld_ILI9341.c **** 			case powerSleep:
 279:..\ugfx_2.6\drivers\gdisp\ILI9341/gdisp_lld_ILI9341.c **** 			case powerDeepSleep:
 280:..\ugfx_2.6\drivers\gdisp\ILI9341/gdisp_lld_ILI9341.c **** 				acquire_bus(g);
 281:..\ugfx_2.6\drivers\gdisp\ILI9341/gdisp_lld_ILI9341.c **** 				write_reg(g, 0x0010, 0x0001);	/* enter sleep mode */
 282:..\ugfx_2.6\drivers\gdisp\ILI9341/gdisp_lld_ILI9341.c **** 				release_bus(g);
 283:..\ugfx_2.6\drivers\gdisp\ILI9341/gdisp_lld_ILI9341.c **** 				break;
 284:..\ugfx_2.6\drivers\gdisp\ILI9341/gdisp_lld_ILI9341.c **** 			case powerOn:
 285:..\ugfx_2.6\drivers\gdisp\ILI9341/gdisp_lld_ILI9341.c **** 				acquire_bus(g);
 286:..\ugfx_2.6\drivers\gdisp\ILI9341/gdisp_lld_ILI9341.c **** 				write_reg(g, 0x0010, 0x0000);	/* leave sleep mode */
 287:..\ugfx_2.6\drivers\gdisp\ILI9341/gdisp_lld_ILI9341.c **** 				release_bus(g);
 288:..\ugfx_2.6\drivers\gdisp\ILI9341/gdisp_lld_ILI9341.c **** 				break;
 289:..\ugfx_2.6\drivers\gdisp\ILI9341/gdisp_lld_ILI9341.c **** 			default:
 290:..\ugfx_2.6\drivers\gdisp\ILI9341/gdisp_lld_ILI9341.c **** 				return;
 291:..\ugfx_2.6\drivers\gdisp\ILI9341/gdisp_lld_ILI9341.c **** 			}
 292:..\ugfx_2.6\drivers\gdisp\ILI9341/gdisp_lld_ILI9341.c **** 			g->g.Powermode = (powermode_t)g->p.ptr;
 293:..\ugfx_2.6\drivers\gdisp\ILI9341/gdisp_lld_ILI9341.c **** 			return;
 294:..\ugfx_2.6\drivers\gdisp\ILI9341/gdisp_lld_ILI9341.c **** 
 295:..\ugfx_2.6\drivers\gdisp\ILI9341/gdisp_lld_ILI9341.c **** 		case GDISP_CONTROL_ORIENTATION:
 296:..\ugfx_2.6\drivers\gdisp\ILI9341/gdisp_lld_ILI9341.c **** 			if (g->g.Orientation == (orientation_t)g->p.ptr)
 297:..\ugfx_2.6\drivers\gdisp\ILI9341/gdisp_lld_ILI9341.c **** 				return;
 298:..\ugfx_2.6\drivers\gdisp\ILI9341/gdisp_lld_ILI9341.c **** 			switch((orientation_t)g->p.ptr) {
 299:..\ugfx_2.6\drivers\gdisp\ILI9341/gdisp_lld_ILI9341.c **** 			case GDISP_ROTATE_0:
 300:..\ugfx_2.6\drivers\gdisp\ILI9341/gdisp_lld_ILI9341.c **** 				acquire_bus(g);
 301:..\ugfx_2.6\drivers\gdisp\ILI9341/gdisp_lld_ILI9341.c **** 				write_reg(g, 0x36, 0x48);	/* X and Y axes non-inverted */
 302:..\ugfx_2.6\drivers\gdisp\ILI9341/gdisp_lld_ILI9341.c **** 				release_bus(g);
 303:..\ugfx_2.6\drivers\gdisp\ILI9341/gdisp_lld_ILI9341.c **** 				g->g.Height = GDISP_SCREEN_HEIGHT;
 304:..\ugfx_2.6\drivers\gdisp\ILI9341/gdisp_lld_ILI9341.c **** 				g->g.Width = GDISP_SCREEN_WIDTH;
 305:..\ugfx_2.6\drivers\gdisp\ILI9341/gdisp_lld_ILI9341.c **** 				break;
 306:..\ugfx_2.6\drivers\gdisp\ILI9341/gdisp_lld_ILI9341.c **** 			case GDISP_ROTATE_90:
 307:..\ugfx_2.6\drivers\gdisp\ILI9341/gdisp_lld_ILI9341.c **** 				acquire_bus(g);
 308:..\ugfx_2.6\drivers\gdisp\ILI9341/gdisp_lld_ILI9341.c **** 				write_reg(g, 0x36, 0xE8);	/* Invert X and Y axes */
 309:..\ugfx_2.6\drivers\gdisp\ILI9341/gdisp_lld_ILI9341.c **** 				release_bus(g);
 310:..\ugfx_2.6\drivers\gdisp\ILI9341/gdisp_lld_ILI9341.c **** 				g->g.Height = GDISP_SCREEN_WIDTH;
 311:..\ugfx_2.6\drivers\gdisp\ILI9341/gdisp_lld_ILI9341.c **** 				g->g.Width = GDISP_SCREEN_HEIGHT;
 312:..\ugfx_2.6\drivers\gdisp\ILI9341/gdisp_lld_ILI9341.c **** 				break;
 313:..\ugfx_2.6\drivers\gdisp\ILI9341/gdisp_lld_ILI9341.c **** 			case GDISP_ROTATE_180:
 314:..\ugfx_2.6\drivers\gdisp\ILI9341/gdisp_lld_ILI9341.c **** 				acquire_bus(g);
 315:..\ugfx_2.6\drivers\gdisp\ILI9341/gdisp_lld_ILI9341.c **** 				write_reg(g, 0x36, 0x88);		/* X and Y axes non-inverted */
 316:..\ugfx_2.6\drivers\gdisp\ILI9341/gdisp_lld_ILI9341.c **** 				release_bus(g);
 317:..\ugfx_2.6\drivers\gdisp\ILI9341/gdisp_lld_ILI9341.c **** 				g->g.Height = GDISP_SCREEN_HEIGHT;
 318:..\ugfx_2.6\drivers\gdisp\ILI9341/gdisp_lld_ILI9341.c **** 				g->g.Width = GDISP_SCREEN_WIDTH;
ARM GAS  C:\Users\joel\AppData\Local\Temp\ccu8lQ08.s 			page 32


 319:..\ugfx_2.6\drivers\gdisp\ILI9341/gdisp_lld_ILI9341.c **** 				break;
 320:..\ugfx_2.6\drivers\gdisp\ILI9341/gdisp_lld_ILI9341.c **** 			case GDISP_ROTATE_270:
 321:..\ugfx_2.6\drivers\gdisp\ILI9341/gdisp_lld_ILI9341.c **** 				acquire_bus(g);
 322:..\ugfx_2.6\drivers\gdisp\ILI9341/gdisp_lld_ILI9341.c **** 				write_reg(g, 0x36, 0x28);	/* Invert X and Y axes */
 323:..\ugfx_2.6\drivers\gdisp\ILI9341/gdisp_lld_ILI9341.c **** 				release_bus(g);
 324:..\ugfx_2.6\drivers\gdisp\ILI9341/gdisp_lld_ILI9341.c **** 				g->g.Height = GDISP_SCREEN_WIDTH;
 325:..\ugfx_2.6\drivers\gdisp\ILI9341/gdisp_lld_ILI9341.c **** 				g->g.Width = GDISP_SCREEN_HEIGHT;
 326:..\ugfx_2.6\drivers\gdisp\ILI9341/gdisp_lld_ILI9341.c **** 				break;
 327:..\ugfx_2.6\drivers\gdisp\ILI9341/gdisp_lld_ILI9341.c **** 			default:
 328:..\ugfx_2.6\drivers\gdisp\ILI9341/gdisp_lld_ILI9341.c **** 				return;
 329:..\ugfx_2.6\drivers\gdisp\ILI9341/gdisp_lld_ILI9341.c **** 			}
 330:..\ugfx_2.6\drivers\gdisp\ILI9341/gdisp_lld_ILI9341.c **** 			g->g.Orientation = (orientation_t)g->p.ptr;
 331:..\ugfx_2.6\drivers\gdisp\ILI9341/gdisp_lld_ILI9341.c **** 			return;
 332:..\ugfx_2.6\drivers\gdisp\ILI9341/gdisp_lld_ILI9341.c **** 
 333:..\ugfx_2.6\drivers\gdisp\ILI9341/gdisp_lld_ILI9341.c ****         case GDISP_CONTROL_BACKLIGHT:
 334:..\ugfx_2.6\drivers\gdisp\ILI9341/gdisp_lld_ILI9341.c ****             if ((unsigned)g->p.ptr > 100)
 335:..\ugfx_2.6\drivers\gdisp\ILI9341/gdisp_lld_ILI9341.c ****             	g->p.ptr = (void *)100;
 336:..\ugfx_2.6\drivers\gdisp\ILI9341/gdisp_lld_ILI9341.c ****             set_backlight(g, (unsigned)g->p.ptr);
 337:..\ugfx_2.6\drivers\gdisp\ILI9341/gdisp_lld_ILI9341.c ****             g->g.Backlight = (unsigned)g->p.ptr;
 338:..\ugfx_2.6\drivers\gdisp\ILI9341/gdisp_lld_ILI9341.c ****             return;
 339:..\ugfx_2.6\drivers\gdisp\ILI9341/gdisp_lld_ILI9341.c **** 
 340:..\ugfx_2.6\drivers\gdisp\ILI9341/gdisp_lld_ILI9341.c **** 		//case GDISP_CONTROL_CONTRAST:
 341:..\ugfx_2.6\drivers\gdisp\ILI9341/gdisp_lld_ILI9341.c ****         default:
 342:..\ugfx_2.6\drivers\gdisp\ILI9341/gdisp_lld_ILI9341.c ****             return;
 1352              		.loc 2 342 0
 1353 001c C1E0     		b	.L25
 1354              	.L29:
 274:..\ugfx_2.6\drivers\gdisp\ILI9341/gdisp_lld_ILI9341.c **** 				return;
 1355              		.loc 2 274 0
 1356 001e 7B68     		ldr	r3, [r7, #4]
 1357 0020 9A7B     		ldrb	r2, [r3, #14]	@ zero_extendqisi2
 1358 0022 7B68     		ldr	r3, [r7, #4]
 1359 0024 DB6B     		ldr	r3, [r3, #60]
 1360 0026 DBB2     		uxtb	r3, r3
 1361 0028 9A42     		cmp	r2, r3
 1362 002a 00D1     		bne	.L30
 275:..\ugfx_2.6\drivers\gdisp\ILI9341/gdisp_lld_ILI9341.c **** 			switch((powermode_t)g->p.ptr) {
 1363              		.loc 2 275 0
 1364 002c B9E0     		b	.L25
 1365              	.L30:
 276:..\ugfx_2.6\drivers\gdisp\ILI9341/gdisp_lld_ILI9341.c **** 			case powerOff:
 1366              		.loc 2 276 0
 1367 002e 7B68     		ldr	r3, [r7, #4]
 1368 0030 DB6B     		ldr	r3, [r3, #60]
 1369 0032 DBB2     		uxtb	r3, r3
 1370 0034 002B     		cmp	r3, #0
 1371 0036 C0F2B380 		blt	.L45
 1372 003a 022B     		cmp	r3, #2
 1373 003c 02DD     		ble	.L33
 1374 003e 032B     		cmp	r3, #3
 1375 0040 0FD0     		beq	.L34
 290:..\ugfx_2.6\drivers\gdisp\ILI9341/gdisp_lld_ILI9341.c **** 			}
 1376              		.loc 2 290 0
 1377 0042 ADE0     		b	.L45
 1378              	.L33:
 280:..\ugfx_2.6\drivers\gdisp\ILI9341/gdisp_lld_ILI9341.c **** 				write_reg(g, 0x0010, 0x0001);	/* enter sleep mode */
 1379              		.loc 2 280 0
ARM GAS  C:\Users\joel\AppData\Local\Temp\ccu8lQ08.s 			page 33


 1380 0044 7868     		ldr	r0, [r7, #4]
 1381 0046 FFF7FEFF 		bl	acquire_bus
 281:..\ugfx_2.6\drivers\gdisp\ILI9341/gdisp_lld_ILI9341.c **** 				release_bus(g);
 1382              		.loc 2 281 0
 1383 004a 7868     		ldr	r0, [r7, #4]
 1384 004c 1021     		movs	r1, #16
 1385 004e FFF7FEFF 		bl	write_index
 1386 0052 7868     		ldr	r0, [r7, #4]
 1387 0054 0121     		movs	r1, #1
 1388 0056 FFF7FEFF 		bl	write_data
 282:..\ugfx_2.6\drivers\gdisp\ILI9341/gdisp_lld_ILI9341.c **** 				break;
 1389              		.loc 2 282 0
 1390 005a 7868     		ldr	r0, [r7, #4]
 1391 005c FFF7FEFF 		bl	release_bus
 283:..\ugfx_2.6\drivers\gdisp\ILI9341/gdisp_lld_ILI9341.c **** 			case powerOn:
 1392              		.loc 2 283 0
 1393 0060 0EE0     		b	.L35
 1394              	.L34:
 285:..\ugfx_2.6\drivers\gdisp\ILI9341/gdisp_lld_ILI9341.c **** 				write_reg(g, 0x0010, 0x0000);	/* leave sleep mode */
 1395              		.loc 2 285 0
 1396 0062 7868     		ldr	r0, [r7, #4]
 1397 0064 FFF7FEFF 		bl	acquire_bus
 286:..\ugfx_2.6\drivers\gdisp\ILI9341/gdisp_lld_ILI9341.c **** 				release_bus(g);
 1398              		.loc 2 286 0
 1399 0068 7868     		ldr	r0, [r7, #4]
 1400 006a 1021     		movs	r1, #16
 1401 006c FFF7FEFF 		bl	write_index
 1402 0070 7868     		ldr	r0, [r7, #4]
 1403 0072 0021     		movs	r1, #0
 1404 0074 FFF7FEFF 		bl	write_data
 287:..\ugfx_2.6\drivers\gdisp\ILI9341/gdisp_lld_ILI9341.c **** 				break;
 1405              		.loc 2 287 0
 1406 0078 7868     		ldr	r0, [r7, #4]
 1407 007a FFF7FEFF 		bl	release_bus
 288:..\ugfx_2.6\drivers\gdisp\ILI9341/gdisp_lld_ILI9341.c **** 			default:
 1408              		.loc 2 288 0
 1409 007e 00BF     		nop
 1410              	.L35:
 292:..\ugfx_2.6\drivers\gdisp\ILI9341/gdisp_lld_ILI9341.c **** 			return;
 1411              		.loc 2 292 0
 1412 0080 7B68     		ldr	r3, [r7, #4]
 1413 0082 DB6B     		ldr	r3, [r3, #60]
 1414 0084 DAB2     		uxtb	r2, r3
 1415 0086 7B68     		ldr	r3, [r7, #4]
 1416 0088 9A73     		strb	r2, [r3, #14]
 293:..\ugfx_2.6\drivers\gdisp\ILI9341/gdisp_lld_ILI9341.c **** 
 1417              		.loc 2 293 0
 1418 008a 8AE0     		b	.L25
 1419              	.L27:
 296:..\ugfx_2.6\drivers\gdisp\ILI9341/gdisp_lld_ILI9341.c **** 				return;
 1420              		.loc 2 296 0
 1421 008c 7B68     		ldr	r3, [r7, #4]
 1422 008e 9A89     		ldrh	r2, [r3, #12]
 1423 0090 7B68     		ldr	r3, [r7, #4]
 1424 0092 DB6B     		ldr	r3, [r3, #60]
 1425 0094 9BB2     		uxth	r3, r3
 1426 0096 9A42     		cmp	r2, r3
ARM GAS  C:\Users\joel\AppData\Local\Temp\ccu8lQ08.s 			page 34


 1427 0098 00D1     		bne	.L36
 297:..\ugfx_2.6\drivers\gdisp\ILI9341/gdisp_lld_ILI9341.c **** 			switch((orientation_t)g->p.ptr) {
 1428              		.loc 2 297 0 discriminator 3
 1429 009a 82E0     		b	.L25
 1430              	.L36:
 298:..\ugfx_2.6\drivers\gdisp\ILI9341/gdisp_lld_ILI9341.c **** 			case GDISP_ROTATE_0:
 1431              		.loc 2 298 0
 1432 009c 7B68     		ldr	r3, [r7, #4]
 1433 009e DB6B     		ldr	r3, [r3, #60]
 1434 00a0 9BB2     		uxth	r3, r3
 1435 00a2 5A2B     		cmp	r3, #90
 1436 00a4 20D0     		beq	.L38
 1437 00a6 5A2B     		cmp	r3, #90
 1438 00a8 02DC     		bgt	.L39
 1439 00aa 002B     		cmp	r3, #0
 1440 00ac 06D0     		beq	.L40
 328:..\ugfx_2.6\drivers\gdisp\ILI9341/gdisp_lld_ILI9341.c **** 			}
 1441              		.loc 2 328 0
 1442 00ae 78E0     		b	.L25
 1443              	.L39:
 298:..\ugfx_2.6\drivers\gdisp\ILI9341/gdisp_lld_ILI9341.c **** 			case GDISP_ROTATE_0:
 1444              		.loc 2 298 0
 1445 00b0 B42B     		cmp	r3, #180
 1446 00b2 2FD0     		beq	.L41
 1447 00b4 B3F5877F 		cmp	r3, #270
 1448 00b8 42D0     		beq	.L42
 328:..\ugfx_2.6\drivers\gdisp\ILI9341/gdisp_lld_ILI9341.c **** 			}
 1449              		.loc 2 328 0
 1450 00ba 72E0     		b	.L25
 1451              	.L40:
 300:..\ugfx_2.6\drivers\gdisp\ILI9341/gdisp_lld_ILI9341.c **** 				write_reg(g, 0x36, 0x48);	/* X and Y axes non-inverted */
 1452              		.loc 2 300 0
 1453 00bc 7868     		ldr	r0, [r7, #4]
 1454 00be FFF7FEFF 		bl	acquire_bus
 301:..\ugfx_2.6\drivers\gdisp\ILI9341/gdisp_lld_ILI9341.c **** 				release_bus(g);
 1455              		.loc 2 301 0
 1456 00c2 7868     		ldr	r0, [r7, #4]
 1457 00c4 3621     		movs	r1, #54
 1458 00c6 FFF7FEFF 		bl	write_index
 1459 00ca 7868     		ldr	r0, [r7, #4]
 1460 00cc 4821     		movs	r1, #72
 1461 00ce FFF7FEFF 		bl	write_data
 302:..\ugfx_2.6\drivers\gdisp\ILI9341/gdisp_lld_ILI9341.c **** 				g->g.Height = GDISP_SCREEN_HEIGHT;
 1462              		.loc 2 302 0
 1463 00d2 7868     		ldr	r0, [r7, #4]
 1464 00d4 FFF7FEFF 		bl	release_bus
 303:..\ugfx_2.6\drivers\gdisp\ILI9341/gdisp_lld_ILI9341.c **** 				g->g.Width = GDISP_SCREEN_WIDTH;
 1465              		.loc 2 303 0
 1466 00d8 7B68     		ldr	r3, [r7, #4]
 1467 00da 4FF4A072 		mov	r2, #320
 1468 00de 5A81     		strh	r2, [r3, #10]	@ movhi
 304:..\ugfx_2.6\drivers\gdisp\ILI9341/gdisp_lld_ILI9341.c **** 				break;
 1469              		.loc 2 304 0
 1470 00e0 7B68     		ldr	r3, [r7, #4]
 1471 00e2 F022     		movs	r2, #240
 1472 00e4 1A81     		strh	r2, [r3, #8]	@ movhi
 305:..\ugfx_2.6\drivers\gdisp\ILI9341/gdisp_lld_ILI9341.c **** 			case GDISP_ROTATE_90:
ARM GAS  C:\Users\joel\AppData\Local\Temp\ccu8lQ08.s 			page 35


 1473              		.loc 2 305 0
 1474 00e6 41E0     		b	.L43
 1475              	.L38:
 307:..\ugfx_2.6\drivers\gdisp\ILI9341/gdisp_lld_ILI9341.c **** 				write_reg(g, 0x36, 0xE8);	/* Invert X and Y axes */
 1476              		.loc 2 307 0
 1477 00e8 7868     		ldr	r0, [r7, #4]
 1478 00ea FFF7FEFF 		bl	acquire_bus
 308:..\ugfx_2.6\drivers\gdisp\ILI9341/gdisp_lld_ILI9341.c **** 				release_bus(g);
 1479              		.loc 2 308 0
 1480 00ee 7868     		ldr	r0, [r7, #4]
 1481 00f0 3621     		movs	r1, #54
 1482 00f2 FFF7FEFF 		bl	write_index
 1483 00f6 7868     		ldr	r0, [r7, #4]
 1484 00f8 E821     		movs	r1, #232
 1485 00fa FFF7FEFF 		bl	write_data
 309:..\ugfx_2.6\drivers\gdisp\ILI9341/gdisp_lld_ILI9341.c **** 				g->g.Height = GDISP_SCREEN_WIDTH;
 1486              		.loc 2 309 0
 1487 00fe 7868     		ldr	r0, [r7, #4]
 1488 0100 FFF7FEFF 		bl	release_bus
 310:..\ugfx_2.6\drivers\gdisp\ILI9341/gdisp_lld_ILI9341.c **** 				g->g.Width = GDISP_SCREEN_HEIGHT;
 1489              		.loc 2 310 0
 1490 0104 7B68     		ldr	r3, [r7, #4]
 1491 0106 F022     		movs	r2, #240
 1492 0108 5A81     		strh	r2, [r3, #10]	@ movhi
 311:..\ugfx_2.6\drivers\gdisp\ILI9341/gdisp_lld_ILI9341.c **** 				break;
 1493              		.loc 2 311 0
 1494 010a 7B68     		ldr	r3, [r7, #4]
 1495 010c 4FF4A072 		mov	r2, #320
 1496 0110 1A81     		strh	r2, [r3, #8]	@ movhi
 312:..\ugfx_2.6\drivers\gdisp\ILI9341/gdisp_lld_ILI9341.c **** 			case GDISP_ROTATE_180:
 1497              		.loc 2 312 0
 1498 0112 2BE0     		b	.L43
 1499              	.L41:
 314:..\ugfx_2.6\drivers\gdisp\ILI9341/gdisp_lld_ILI9341.c **** 				write_reg(g, 0x36, 0x88);		/* X and Y axes non-inverted */
 1500              		.loc 2 314 0
 1501 0114 7868     		ldr	r0, [r7, #4]
 1502 0116 FFF7FEFF 		bl	acquire_bus
 315:..\ugfx_2.6\drivers\gdisp\ILI9341/gdisp_lld_ILI9341.c **** 				release_bus(g);
 1503              		.loc 2 315 0
 1504 011a 7868     		ldr	r0, [r7, #4]
 1505 011c 3621     		movs	r1, #54
 1506 011e FFF7FEFF 		bl	write_index
 1507 0122 7868     		ldr	r0, [r7, #4]
 1508 0124 8821     		movs	r1, #136
 1509 0126 FFF7FEFF 		bl	write_data
 316:..\ugfx_2.6\drivers\gdisp\ILI9341/gdisp_lld_ILI9341.c **** 				g->g.Height = GDISP_SCREEN_HEIGHT;
 1510              		.loc 2 316 0
 1511 012a 7868     		ldr	r0, [r7, #4]
 1512 012c FFF7FEFF 		bl	release_bus
 317:..\ugfx_2.6\drivers\gdisp\ILI9341/gdisp_lld_ILI9341.c **** 				g->g.Width = GDISP_SCREEN_WIDTH;
 1513              		.loc 2 317 0
 1514 0130 7B68     		ldr	r3, [r7, #4]
 1515 0132 4FF4A072 		mov	r2, #320
 1516 0136 5A81     		strh	r2, [r3, #10]	@ movhi
 318:..\ugfx_2.6\drivers\gdisp\ILI9341/gdisp_lld_ILI9341.c **** 				break;
 1517              		.loc 2 318 0
 1518 0138 7B68     		ldr	r3, [r7, #4]
ARM GAS  C:\Users\joel\AppData\Local\Temp\ccu8lQ08.s 			page 36


 1519 013a F022     		movs	r2, #240
 1520 013c 1A81     		strh	r2, [r3, #8]	@ movhi
 319:..\ugfx_2.6\drivers\gdisp\ILI9341/gdisp_lld_ILI9341.c **** 			case GDISP_ROTATE_270:
 1521              		.loc 2 319 0
 1522 013e 15E0     		b	.L43
 1523              	.L42:
 321:..\ugfx_2.6\drivers\gdisp\ILI9341/gdisp_lld_ILI9341.c **** 				write_reg(g, 0x36, 0x28);	/* Invert X and Y axes */
 1524              		.loc 2 321 0
 1525 0140 7868     		ldr	r0, [r7, #4]
 1526 0142 FFF7FEFF 		bl	acquire_bus
 322:..\ugfx_2.6\drivers\gdisp\ILI9341/gdisp_lld_ILI9341.c **** 				release_bus(g);
 1527              		.loc 2 322 0
 1528 0146 7868     		ldr	r0, [r7, #4]
 1529 0148 3621     		movs	r1, #54
 1530 014a FFF7FEFF 		bl	write_index
 1531 014e 7868     		ldr	r0, [r7, #4]
 1532 0150 2821     		movs	r1, #40
 1533 0152 FFF7FEFF 		bl	write_data
 323:..\ugfx_2.6\drivers\gdisp\ILI9341/gdisp_lld_ILI9341.c **** 				g->g.Height = GDISP_SCREEN_WIDTH;
 1534              		.loc 2 323 0
 1535 0156 7868     		ldr	r0, [r7, #4]
 1536 0158 FFF7FEFF 		bl	release_bus
 324:..\ugfx_2.6\drivers\gdisp\ILI9341/gdisp_lld_ILI9341.c **** 				g->g.Width = GDISP_SCREEN_HEIGHT;
 1537              		.loc 2 324 0
 1538 015c 7B68     		ldr	r3, [r7, #4]
 1539 015e F022     		movs	r2, #240
 1540 0160 5A81     		strh	r2, [r3, #10]	@ movhi
 325:..\ugfx_2.6\drivers\gdisp\ILI9341/gdisp_lld_ILI9341.c **** 				break;
 1541              		.loc 2 325 0
 1542 0162 7B68     		ldr	r3, [r7, #4]
 1543 0164 4FF4A072 		mov	r2, #320
 1544 0168 1A81     		strh	r2, [r3, #8]	@ movhi
 326:..\ugfx_2.6\drivers\gdisp\ILI9341/gdisp_lld_ILI9341.c **** 			default:
 1545              		.loc 2 326 0
 1546 016a 00BF     		nop
 1547              	.L43:
 330:..\ugfx_2.6\drivers\gdisp\ILI9341/gdisp_lld_ILI9341.c **** 			return;
 1548              		.loc 2 330 0
 1549 016c 7B68     		ldr	r3, [r7, #4]
 1550 016e DB6B     		ldr	r3, [r3, #60]
 1551 0170 9AB2     		uxth	r2, r3
 1552 0172 7B68     		ldr	r3, [r7, #4]
 1553 0174 9A81     		strh	r2, [r3, #12]	@ movhi
 331:..\ugfx_2.6\drivers\gdisp\ILI9341/gdisp_lld_ILI9341.c **** 
 1554              		.loc 2 331 0
 1555 0176 14E0     		b	.L25
 1556              	.L28:
 334:..\ugfx_2.6\drivers\gdisp\ILI9341/gdisp_lld_ILI9341.c ****             	g->p.ptr = (void *)100;
 1557              		.loc 2 334 0
 1558 0178 7B68     		ldr	r3, [r7, #4]
 1559 017a DB6B     		ldr	r3, [r3, #60]
 1560 017c 642B     		cmp	r3, #100
 1561 017e 02D9     		bls	.L44
 335:..\ugfx_2.6\drivers\gdisp\ILI9341/gdisp_lld_ILI9341.c ****             set_backlight(g, (unsigned)g->p.ptr);
 1562              		.loc 2 335 0
 1563 0180 7B68     		ldr	r3, [r7, #4]
 1564 0182 6422     		movs	r2, #100
ARM GAS  C:\Users\joel\AppData\Local\Temp\ccu8lQ08.s 			page 37


 1565 0184 DA63     		str	r2, [r3, #60]
 1566              	.L44:
 336:..\ugfx_2.6\drivers\gdisp\ILI9341/gdisp_lld_ILI9341.c ****             g->g.Backlight = (unsigned)g->p.ptr;
 1567              		.loc 2 336 0
 1568 0186 7B68     		ldr	r3, [r7, #4]
 1569 0188 DB6B     		ldr	r3, [r3, #60]
 1570 018a DBB2     		uxtb	r3, r3
 1571 018c 7868     		ldr	r0, [r7, #4]
 1572 018e 1946     		mov	r1, r3
 1573 0190 FFF7FEFF 		bl	set_backlight
 337:..\ugfx_2.6\drivers\gdisp\ILI9341/gdisp_lld_ILI9341.c ****             return;
 1574              		.loc 2 337 0
 1575 0194 7B68     		ldr	r3, [r7, #4]
 1576 0196 DB6B     		ldr	r3, [r3, #60]
 1577 0198 DAB2     		uxtb	r2, r3
 1578 019a 7B68     		ldr	r3, [r7, #4]
 1579 019c DA73     		strb	r2, [r3, #15]
 338:..\ugfx_2.6\drivers\gdisp\ILI9341/gdisp_lld_ILI9341.c **** 
 1580              		.loc 2 338 0
 1581 019e 00E0     		b	.L25
 1582              	.L45:
 290:..\ugfx_2.6\drivers\gdisp\ILI9341/gdisp_lld_ILI9341.c **** 			}
 1583              		.loc 2 290 0
 1584 01a0 00BF     		nop
 1585              	.L25:
 343:..\ugfx_2.6\drivers\gdisp\ILI9341/gdisp_lld_ILI9341.c **** 		}
 344:..\ugfx_2.6\drivers\gdisp\ILI9341/gdisp_lld_ILI9341.c **** 	}
 1586              		.loc 2 344 0
 1587 01a2 0837     		adds	r7, r7, #8
 1588              		.cfi_def_cfa_offset 8
 1589 01a4 BD46     		mov	sp, r7
 1590              		.cfi_def_cfa_register 13
 1591              		@ sp needed
 1592 01a6 80BD     		pop	{r7, pc}
 1593              		.cfi_endproc
 1594              	.LFE82:
 1595              		.size	gdisp_lld_control, .-gdisp_lld_control
 1596              		.text
 1597              	.Letext0:
 1598              		.file 3 "..\\ugfx_2.6/src/gos/gos_raw32.h"
 1599              		.file 4 "..\\ugfx_2.6/src/gdisp/gdisp.h"
 1600              		.file 5 "..\\ugfx_2.6\\drivers\\gdisp\\ILI9341\\../../../src/gdisp/gdisp_driver.h"
 1601              		.file 6 "..\\ugfx_2.6/src/gdisp/gdisp_colors.h"
 1602              		.file 7 "c:\\users\\joel\\desktop\\psoc\\psoc_ugfx_demo\\ugfx_2.6\\src\\gdriver\\gdriver.h"
 1603              		.file 8 "c:\\program files (x86)\\cypress\\psoc creator\\3.3\\psoc creator\\import\\gnu\\arm\\4.9.
 1604              		.file 9 "Generated_Source\\PSoC5/core_cm3.h"