ARM GAS  C:\Users\joel\AppData\Local\Temp\cc53xt53.s 			page 1


   1              		.syntax unified
   2              		.cpu cortex-m3
   3              		.fpu softvfp
   4              		.eabi_attribute 20, 1
   5              		.eabi_attribute 21, 1
   6              		.eabi_attribute 23, 3
   7              		.eabi_attribute 24, 1
   8              		.eabi_attribute 25, 1
   9              		.eabi_attribute 26, 1
  10              		.eabi_attribute 30, 6
  11              		.eabi_attribute 34, 1
  12              		.eabi_attribute 18, 4
  13              		.thumb
  14              		.file	"gfx_mk.c"
  15              		.text
  16              	.Ltext0:
  17              		.cfi_sections	.debug_frame
  18              		.bss
  19              	gfxInitDone:
  20 0000 00       		.space	1
  21              		.section	.text.gfxInit,"ax",%progbits
  22              		.align	2
  23              		.global	gfxInit
  24              		.thumb
  25              		.thumb_func
  26              		.type	gfxInit, %function
  27              	gfxInit:
  28              	.LFB0:
  29              		.file 1 "..\\ugfx_2.6\\src\\gfx.c"
   1:..\ugfx_2.6\src/gfx.c **** /*
   2:..\ugfx_2.6\src/gfx.c ****  * This file is subject to the terms of the GFX License. If a copy of
   3:..\ugfx_2.6\src/gfx.c ****  * the license was not distributed with this file, you can obtain one at:
   4:..\ugfx_2.6\src/gfx.c ****  *
   5:..\ugfx_2.6\src/gfx.c ****  *              http://ugfx.org/license.html
   6:..\ugfx_2.6\src/gfx.c ****  */
   7:..\ugfx_2.6\src/gfx.c **** 
   8:..\ugfx_2.6\src/gfx.c **** /**
   9:..\ugfx_2.6\src/gfx.c ****  * @file    src/gfx.c
  10:..\ugfx_2.6\src/gfx.c ****  * @brief   GFX common routines.
  11:..\ugfx_2.6\src/gfx.c ****  */
  12:..\ugfx_2.6\src/gfx.c **** 
  13:..\ugfx_2.6\src/gfx.c **** /* Display various warnings from gfx_rules.h */
  14:..\ugfx_2.6\src/gfx.c **** #define GFX_DISPLAY_RULE_WARNINGS	TRUE
  15:..\ugfx_2.6\src/gfx.c **** 
  16:..\ugfx_2.6\src/gfx.c **** #include "../gfx.h"
  17:..\ugfx_2.6\src/gfx.c **** 
  18:..\ugfx_2.6\src/gfx.c **** static bool_t gfxInitDone = FALSE;
  19:..\ugfx_2.6\src/gfx.c **** 
  20:..\ugfx_2.6\src/gfx.c **** /* These init functions are defined by each module but not published */
  21:..\ugfx_2.6\src/gfx.c **** extern void _gosInit(void);
  22:..\ugfx_2.6\src/gfx.c **** extern void _gosDeinit(void);
  23:..\ugfx_2.6\src/gfx.c **** #ifdef GFX_OS_PRE_INIT_FUNCTION
  24:..\ugfx_2.6\src/gfx.c **** 		extern void GFX_OS_PRE_INIT_FUNCTION(void);
  25:..\ugfx_2.6\src/gfx.c **** #endif
  26:..\ugfx_2.6\src/gfx.c **** #ifdef GFX_OS_EXTRA_INIT_FUNCTION
  27:..\ugfx_2.6\src/gfx.c **** 		extern void GFX_OS_EXTRA_INIT_FUNCTION(void);
  28:..\ugfx_2.6\src/gfx.c **** #endif
ARM GAS  C:\Users\joel\AppData\Local\Temp\cc53xt53.s 			page 2


  29:..\ugfx_2.6\src/gfx.c **** #ifdef GFX_OS_EXTRA_DEINIT_FUNCTION
  30:..\ugfx_2.6\src/gfx.c **** 		extern void GFX_OS_EXTRA_DEINIT_FUNCTION(void);
  31:..\ugfx_2.6\src/gfx.c **** #endif
  32:..\ugfx_2.6\src/gfx.c **** #if GFX_USE_GDRIVER
  33:..\ugfx_2.6\src/gfx.c **** 	extern void _gdriverInit(void);
  34:..\ugfx_2.6\src/gfx.c **** 	extern void _gdriverDeinit(void);
  35:..\ugfx_2.6\src/gfx.c **** #endif
  36:..\ugfx_2.6\src/gfx.c **** #if GFX_USE_GFILE
  37:..\ugfx_2.6\src/gfx.c **** 	extern void _gfileInit(void);
  38:..\ugfx_2.6\src/gfx.c **** 	extern void _gfileDeinit(void);
  39:..\ugfx_2.6\src/gfx.c **** #endif
  40:..\ugfx_2.6\src/gfx.c **** #if GFX_USE_GDISP
  41:..\ugfx_2.6\src/gfx.c **** 	extern void _gdispInit(void);
  42:..\ugfx_2.6\src/gfx.c **** 	extern void _gdispDeinit(void);
  43:..\ugfx_2.6\src/gfx.c **** #endif
  44:..\ugfx_2.6\src/gfx.c **** #if GFX_USE_GWIN
  45:..\ugfx_2.6\src/gfx.c **** 	extern void _gwinInit(void);
  46:..\ugfx_2.6\src/gfx.c **** 	extern void _gwinDeinit(void);
  47:..\ugfx_2.6\src/gfx.c **** #endif
  48:..\ugfx_2.6\src/gfx.c **** #if GFX_USE_GEVENT
  49:..\ugfx_2.6\src/gfx.c **** 	extern void _geventInit(void);
  50:..\ugfx_2.6\src/gfx.c **** 	extern void _geventDeinit(void);
  51:..\ugfx_2.6\src/gfx.c **** #endif
  52:..\ugfx_2.6\src/gfx.c **** #if GFX_USE_GTIMER
  53:..\ugfx_2.6\src/gfx.c **** 	extern void _gtimerInit(void);
  54:..\ugfx_2.6\src/gfx.c **** 	extern void _gtimerDeinit(void);
  55:..\ugfx_2.6\src/gfx.c **** #endif
  56:..\ugfx_2.6\src/gfx.c **** #if GFX_USE_GINPUT
  57:..\ugfx_2.6\src/gfx.c **** 	extern void _ginputInit(void);
  58:..\ugfx_2.6\src/gfx.c **** 	extern void _ginputDeinit(void);
  59:..\ugfx_2.6\src/gfx.c **** #endif
  60:..\ugfx_2.6\src/gfx.c **** #if GFX_USE_GADC
  61:..\ugfx_2.6\src/gfx.c **** 	extern void _gadcInit(void);
  62:..\ugfx_2.6\src/gfx.c **** 	extern void _gadcDeinit(void);
  63:..\ugfx_2.6\src/gfx.c **** #endif
  64:..\ugfx_2.6\src/gfx.c **** #if GFX_USE_GAUDIO
  65:..\ugfx_2.6\src/gfx.c **** 	extern void _gaudioInit(void);
  66:..\ugfx_2.6\src/gfx.c **** 	extern void _gaudioDeinit(void);
  67:..\ugfx_2.6\src/gfx.c **** #endif
  68:..\ugfx_2.6\src/gfx.c **** #if GFX_USE_GQUEUE
  69:..\ugfx_2.6\src/gfx.c **** 	extern void _gqueueInit(void);
  70:..\ugfx_2.6\src/gfx.c **** 	extern void _gqueueDeinit(void);
  71:..\ugfx_2.6\src/gfx.c **** #endif
  72:..\ugfx_2.6\src/gfx.c **** #if GFX_USE_GMISC
  73:..\ugfx_2.6\src/gfx.c **** 	extern void _gmiscInit(void);
  74:..\ugfx_2.6\src/gfx.c **** 	extern void _gmiscDeinit(void);
  75:..\ugfx_2.6\src/gfx.c **** #endif
  76:..\ugfx_2.6\src/gfx.c **** #if GFX_USE_GTRANS
  77:..\ugfx_2.6\src/gfx.c **** 	extern void _gtransInit(void);
  78:..\ugfx_2.6\src/gfx.c **** 	extern void _gtransDeinit(void);
  79:..\ugfx_2.6\src/gfx.c **** #endif
  80:..\ugfx_2.6\src/gfx.c **** 
  81:..\ugfx_2.6\src/gfx.c **** void gfxInit(void)
  82:..\ugfx_2.6\src/gfx.c **** {
  30              		.loc 1 82 0
  31              		.cfi_startproc
  32              		@ args = 0, pretend = 0, frame = 0
ARM GAS  C:\Users\joel\AppData\Local\Temp\cc53xt53.s 			page 3


  33              		@ frame_needed = 1, uses_anonymous_args = 0
  34 0000 80B5     		push	{r7, lr}
  35              		.cfi_def_cfa_offset 8
  36              		.cfi_offset 7, -8
  37              		.cfi_offset 14, -4
  38 0002 00AF     		add	r7, sp, #0
  39              		.cfi_def_cfa_register 7
  83:..\ugfx_2.6\src/gfx.c **** 	/* Ensure we only initialise once */
  84:..\ugfx_2.6\src/gfx.c **** 	if (gfxInitDone)
  40              		.loc 1 84 0
  41 0004 094B     		ldr	r3, .L4
  42 0006 1B78     		ldrb	r3, [r3]	@ zero_extendqisi2
  43 0008 002B     		cmp	r3, #0
  44 000a 00D0     		beq	.L2
  85:..\ugfx_2.6\src/gfx.c **** 		return;
  45              		.loc 1 85 0
  46 000c 0CE0     		b	.L1
  47              	.L2:
  86:..\ugfx_2.6\src/gfx.c **** 	gfxInitDone = TRUE;
  48              		.loc 1 86 0
  49 000e 074B     		ldr	r3, .L4
  50 0010 FF22     		movs	r2, #255
  51 0012 1A70     		strb	r2, [r3]
  87:..\ugfx_2.6\src/gfx.c **** 
  88:..\ugfx_2.6\src/gfx.c **** 	// These must be initialised in the order of their dependancies
  89:..\ugfx_2.6\src/gfx.c **** 
  90:..\ugfx_2.6\src/gfx.c **** 	#ifdef GFX_OS_PRE_INIT_FUNCTION
  91:..\ugfx_2.6\src/gfx.c **** 		GFX_OS_PRE_INIT_FUNCTION();
  52              		.loc 1 91 0
  53 0014 FFF7FEFF 		bl	raw32Init
  92:..\ugfx_2.6\src/gfx.c **** 	#endif
  93:..\ugfx_2.6\src/gfx.c **** 	_gosInit();
  54              		.loc 1 93 0
  55 0018 FFF7FEFF 		bl	_gosInit
  94:..\ugfx_2.6\src/gfx.c **** 	#ifdef GFX_OS_EXTRA_INIT_FUNCTION
  95:..\ugfx_2.6\src/gfx.c **** 		GFX_OS_EXTRA_INIT_FUNCTION();
  96:..\ugfx_2.6\src/gfx.c **** 	#endif
  97:..\ugfx_2.6\src/gfx.c **** 	#if GFX_USE_GQUEUE
  98:..\ugfx_2.6\src/gfx.c **** 		_gqueueInit();
  99:..\ugfx_2.6\src/gfx.c **** 	#endif
 100:..\ugfx_2.6\src/gfx.c **** 	#if GFX_USE_GMISC
 101:..\ugfx_2.6\src/gfx.c **** 		_gmiscInit();
 102:..\ugfx_2.6\src/gfx.c **** 	#endif
 103:..\ugfx_2.6\src/gfx.c **** 	#if GFX_USE_GTRANS
 104:..\ugfx_2.6\src/gfx.c **** 		_gtransInit();
 105:..\ugfx_2.6\src/gfx.c **** 	#endif
 106:..\ugfx_2.6\src/gfx.c **** 	#if GFX_USE_GEVENT
 107:..\ugfx_2.6\src/gfx.c **** 		_geventInit();
 108:..\ugfx_2.6\src/gfx.c **** 	#endif
 109:..\ugfx_2.6\src/gfx.c **** 	#if GFX_USE_GTIMER
 110:..\ugfx_2.6\src/gfx.c **** 		_gtimerInit();
 111:..\ugfx_2.6\src/gfx.c **** 	#endif
 112:..\ugfx_2.6\src/gfx.c **** 	#if GFX_USE_GDRIVER
 113:..\ugfx_2.6\src/gfx.c **** 		_gdriverInit();
  56              		.loc 1 113 0
  57 001c FFF7FEFF 		bl	_gdriverInit
 114:..\ugfx_2.6\src/gfx.c **** 	#endif
ARM GAS  C:\Users\joel\AppData\Local\Temp\cc53xt53.s 			page 4


 115:..\ugfx_2.6\src/gfx.c **** 	#if GFX_USE_GFILE
 116:..\ugfx_2.6\src/gfx.c **** 		_gfileInit();
  58              		.loc 1 116 0
  59 0020 FFF7FEFF 		bl	_gfileInit
 117:..\ugfx_2.6\src/gfx.c **** 	#endif
 118:..\ugfx_2.6\src/gfx.c **** 	#if GFX_USE_GDISP
 119:..\ugfx_2.6\src/gfx.c **** 		_gdispInit();
  60              		.loc 1 119 0
  61 0024 FFF7FEFF 		bl	_gdispInit
  62              	.L1:
 120:..\ugfx_2.6\src/gfx.c **** 	#endif
 121:..\ugfx_2.6\src/gfx.c **** 	#if GFX_USE_GINPUT
 122:..\ugfx_2.6\src/gfx.c **** 		_ginputInit();
 123:..\ugfx_2.6\src/gfx.c **** 	#endif
 124:..\ugfx_2.6\src/gfx.c **** 	#if GFX_USE_GADC
 125:..\ugfx_2.6\src/gfx.c **** 		_gadcInit();
 126:..\ugfx_2.6\src/gfx.c **** 	#endif
 127:..\ugfx_2.6\src/gfx.c **** 	#if GFX_USE_GAUDIO
 128:..\ugfx_2.6\src/gfx.c **** 		_gaudioInit();
 129:..\ugfx_2.6\src/gfx.c **** 	#endif
 130:..\ugfx_2.6\src/gfx.c **** 	#if GFX_USE_GWIN
 131:..\ugfx_2.6\src/gfx.c **** 		_gwinInit();
 132:..\ugfx_2.6\src/gfx.c **** 	#endif
 133:..\ugfx_2.6\src/gfx.c **** }
  63              		.loc 1 133 0
  64 0028 80BD     		pop	{r7, pc}
  65              	.L5:
  66 002a 00BF     		.align	2
  67              	.L4:
  68 002c 00000000 		.word	gfxInitDone
  69              		.cfi_endproc
  70              	.LFE0:
  71              		.size	gfxInit, .-gfxInit
  72              		.section	.text.gfxDeinit,"ax",%progbits
  73              		.align	2
  74              		.global	gfxDeinit
  75              		.thumb
  76              		.thumb_func
  77              		.type	gfxDeinit, %function
  78              	gfxDeinit:
  79              	.LFB1:
 134:..\ugfx_2.6\src/gfx.c **** 
 135:..\ugfx_2.6\src/gfx.c **** void gfxDeinit(void)
 136:..\ugfx_2.6\src/gfx.c **** {
  80              		.loc 1 136 0
  81              		.cfi_startproc
  82              		@ args = 0, pretend = 0, frame = 0
  83              		@ frame_needed = 1, uses_anonymous_args = 0
  84 0000 80B5     		push	{r7, lr}
  85              		.cfi_def_cfa_offset 8
  86              		.cfi_offset 7, -8
  87              		.cfi_offset 14, -4
  88 0002 00AF     		add	r7, sp, #0
  89              		.cfi_def_cfa_register 7
 137:..\ugfx_2.6\src/gfx.c **** 	if (!gfxInitDone)
  90              		.loc 1 137 0
  91 0004 084B     		ldr	r3, .L9
ARM GAS  C:\Users\joel\AppData\Local\Temp\cc53xt53.s 			page 5


  92 0006 1B78     		ldrb	r3, [r3]	@ zero_extendqisi2
  93 0008 002B     		cmp	r3, #0
  94 000a 00D1     		bne	.L7
 138:..\ugfx_2.6\src/gfx.c **** 		return;
  95              		.loc 1 138 0
  96 000c 0AE0     		b	.L6
  97              	.L7:
 139:..\ugfx_2.6\src/gfx.c **** 	gfxInitDone = FALSE;
  98              		.loc 1 139 0
  99 000e 064B     		ldr	r3, .L9
 100 0010 0022     		movs	r2, #0
 101 0012 1A70     		strb	r2, [r3]
 140:..\ugfx_2.6\src/gfx.c **** 
 141:..\ugfx_2.6\src/gfx.c **** 	// We deinitialise the opposite way as we initialised
 142:..\ugfx_2.6\src/gfx.c **** 	#if GFX_USE_GWIN
 143:..\ugfx_2.6\src/gfx.c **** 		_gwinDeinit();
 144:..\ugfx_2.6\src/gfx.c **** 	#endif
 145:..\ugfx_2.6\src/gfx.c **** 	#if GFX_USE_GAUDIO
 146:..\ugfx_2.6\src/gfx.c **** 		_gaudioDeinit();
 147:..\ugfx_2.6\src/gfx.c **** 	#endif
 148:..\ugfx_2.6\src/gfx.c **** 	#if GFX_USE_GADC
 149:..\ugfx_2.6\src/gfx.c **** 		_gadcDeinit();
 150:..\ugfx_2.6\src/gfx.c **** 	#endif
 151:..\ugfx_2.6\src/gfx.c **** 	#if GFX_USE_GINPUT
 152:..\ugfx_2.6\src/gfx.c **** 		_ginputDeinit();
 153:..\ugfx_2.6\src/gfx.c **** 	#endif
 154:..\ugfx_2.6\src/gfx.c **** 	#if GFX_USE_GDISP
 155:..\ugfx_2.6\src/gfx.c **** 		_gdispDeinit();
 102              		.loc 1 155 0
 103 0014 FFF7FEFF 		bl	_gdispDeinit
 156:..\ugfx_2.6\src/gfx.c **** 	#endif
 157:..\ugfx_2.6\src/gfx.c **** 	#if GFX_USE_GFILE
 158:..\ugfx_2.6\src/gfx.c **** 		_gfileDeinit();
 104              		.loc 1 158 0
 105 0018 FFF7FEFF 		bl	_gfileDeinit
 159:..\ugfx_2.6\src/gfx.c **** 	#endif
 160:..\ugfx_2.6\src/gfx.c **** 	#if GFX_USE_GDRIVER
 161:..\ugfx_2.6\src/gfx.c **** 		_gdriverDeinit();
 106              		.loc 1 161 0
 107 001c FFF7FEFF 		bl	_gdriverDeinit
 162:..\ugfx_2.6\src/gfx.c **** 	#endif
 163:..\ugfx_2.6\src/gfx.c **** 	#if GFX_USE_GTIMER
 164:..\ugfx_2.6\src/gfx.c **** 		_gtimerDeinit();
 165:..\ugfx_2.6\src/gfx.c **** 	#endif
 166:..\ugfx_2.6\src/gfx.c **** 	#if GFX_USE_GEVENT
 167:..\ugfx_2.6\src/gfx.c **** 		_geventDeinit();
 168:..\ugfx_2.6\src/gfx.c **** 	#endif
 169:..\ugfx_2.6\src/gfx.c **** 	#if GFX_USE_GTRANS
 170:..\ugfx_2.6\src/gfx.c **** 		_gtransDeinit();
 171:..\ugfx_2.6\src/gfx.c **** 	#endif
 172:..\ugfx_2.6\src/gfx.c **** 	#if GFX_USE_GMISC
 173:..\ugfx_2.6\src/gfx.c **** 		_gmiscDeinit();
 174:..\ugfx_2.6\src/gfx.c **** 	#endif
 175:..\ugfx_2.6\src/gfx.c **** 	#if GFX_USE_GQUEUE
 176:..\ugfx_2.6\src/gfx.c **** 		_gqueueDeinit();
 177:..\ugfx_2.6\src/gfx.c **** 	#endif
 178:..\ugfx_2.6\src/gfx.c **** 	#ifdef GFX_OS_EXTRA_DEINIT_FUNCTION
ARM GAS  C:\Users\joel\AppData\Local\Temp\cc53xt53.s 			page 6


 179:..\ugfx_2.6\src/gfx.c **** 		GFX_OS_EXTRA_DEINIT_FUNCTION();
 180:..\ugfx_2.6\src/gfx.c **** 	#endif
 181:..\ugfx_2.6\src/gfx.c **** 	_gosDeinit();
 108              		.loc 1 181 0
 109 0020 FFF7FEFF 		bl	_gosDeinit
 110              	.L6:
 182:..\ugfx_2.6\src/gfx.c **** }
 111              		.loc 1 182 0
 112 0024 80BD     		pop	{r7, pc}
 113              	.L10:
 114 0026 00BF     		.align	2
 115              	.L9:
 116 0028 00000000 		.word	gfxInitDone
 117              		.cfi_endproc
 118              	.LFE1:
 119              		.size	gfxDeinit, .-gfxDeinit
 120              		.section	.text._gosInit,"ax",%progbits
 121              		.align	2
 122              		.global	_gosInit
 123              		.thumb
 124              		.thumb_func
 125              		.type	_gosInit, %function
 126              	_gosInit:
 127              	.LFB2:
 128              		.file 2 "..\\ugfx_2.6\\src\\gos/gos_raw32.c"
   1:..\ugfx_2.6\src\gos/gos_raw32.c **** /*
   2:..\ugfx_2.6\src\gos/gos_raw32.c ****  * This file is subject to the terms of the GFX License. If a copy of
   3:..\ugfx_2.6\src\gos/gos_raw32.c ****  * the license was not distributed with this file, you can obtain one at:
   4:..\ugfx_2.6\src\gos/gos_raw32.c ****  *
   5:..\ugfx_2.6\src\gos/gos_raw32.c ****  *              http://ugfx.org/license.html
   6:..\ugfx_2.6\src\gos/gos_raw32.c ****  */
   7:..\ugfx_2.6\src\gos/gos_raw32.c **** 
   8:..\ugfx_2.6\src\gos/gos_raw32.c **** // We need to include stdio.h below for Win32 emulation. Turn off GFILE_NEED_STDIO just for this fi
   9:..\ugfx_2.6\src\gos/gos_raw32.c **** #define GFILE_NEED_STDIO_MUST_BE_OFF
  10:..\ugfx_2.6\src\gos/gos_raw32.c **** 
  11:..\ugfx_2.6\src\gos/gos_raw32.c **** #include "../../gfx.h"
  12:..\ugfx_2.6\src\gos/gos_raw32.c **** 
  13:..\ugfx_2.6\src\gos/gos_raw32.c **** #if GFX_USE_OS_RAW32
  14:..\ugfx_2.6\src\gos/gos_raw32.c **** 
  15:..\ugfx_2.6\src\gos/gos_raw32.c **** void _gosHeapInit(void);
  16:..\ugfx_2.6\src\gos/gos_raw32.c **** void _gosThreadsInit(void);
  17:..\ugfx_2.6\src\gos/gos_raw32.c **** 
  18:..\ugfx_2.6\src\gos/gos_raw32.c **** /*********************************************************
  19:..\ugfx_2.6\src\gos/gos_raw32.c ****  * Initialise
  20:..\ugfx_2.6\src\gos/gos_raw32.c ****  *********************************************************/
  21:..\ugfx_2.6\src\gos/gos_raw32.c **** 
  22:..\ugfx_2.6\src\gos/gos_raw32.c **** void _gosInit(void)
  23:..\ugfx_2.6\src\gos/gos_raw32.c **** {
 129              		.loc 2 23 0
 130              		.cfi_startproc
 131              		@ args = 0, pretend = 0, frame = 0
 132              		@ frame_needed = 1, uses_anonymous_args = 0
 133 0000 80B5     		push	{r7, lr}
 134              		.cfi_def_cfa_offset 8
 135              		.cfi_offset 7, -8
 136              		.cfi_offset 14, -4
 137 0002 00AF     		add	r7, sp, #0
ARM GAS  C:\Users\joel\AppData\Local\Temp\cc53xt53.s 			page 7


 138              		.cfi_def_cfa_register 7
  24:..\ugfx_2.6\src\gos/gos_raw32.c **** 	/* No initialization of the operating system itself is needed as there isn't one.
  25:..\ugfx_2.6\src\gos/gos_raw32.c **** 	 * On the other hand the C runtime should still already be initialized before
  26:..\ugfx_2.6\src\gos/gos_raw32.c **** 	 * getting here!
  27:..\ugfx_2.6\src\gos/gos_raw32.c **** 	 */
  28:..\ugfx_2.6\src\gos/gos_raw32.c **** 	#if !GFX_OS_INIT_NO_WARNING
  29:..\ugfx_2.6\src\gos/gos_raw32.c **** 		#warning "GOS: Raw32 - Make sure you initialize your hardware and the C runtime before calling gf
  30:..\ugfx_2.6\src\gos/gos_raw32.c **** 	#endif
  31:..\ugfx_2.6\src\gos/gos_raw32.c **** 
  32:..\ugfx_2.6\src\gos/gos_raw32.c **** 	// Set up the heap allocator
  33:..\ugfx_2.6\src\gos/gos_raw32.c **** 	_gosHeapInit();
 139              		.loc 2 33 0
 140 0004 FFF7FEFF 		bl	_gosHeapInit
  34:..\ugfx_2.6\src\gos/gos_raw32.c **** 
  35:..\ugfx_2.6\src\gos/gos_raw32.c **** 	// Start the scheduler
  36:..\ugfx_2.6\src\gos/gos_raw32.c **** 	_gosThreadsInit();
 141              		.loc 2 36 0
 142 0008 FFF7FEFF 		bl	_gosThreadsInit
  37:..\ugfx_2.6\src\gos/gos_raw32.c **** }
 143              		.loc 2 37 0
 144 000c 80BD     		pop	{r7, pc}
 145              		.cfi_endproc
 146              	.LFE2:
 147              		.size	_gosInit, .-_gosInit
 148 000e 00BF     		.section	.text._gosDeinit,"ax",%progbits
 149              		.align	2
 150              		.global	_gosDeinit
 151              		.thumb
 152              		.thumb_func
 153              		.type	_gosDeinit, %function
 154              	_gosDeinit:
 155              	.LFB3:
  38:..\ugfx_2.6\src\gos/gos_raw32.c **** 
  39:..\ugfx_2.6\src\gos/gos_raw32.c **** void _gosDeinit(void)
  40:..\ugfx_2.6\src\gos/gos_raw32.c **** {
 156              		.loc 2 40 0
 157              		.cfi_startproc
 158              		@ args = 0, pretend = 0, frame = 0
 159              		@ frame_needed = 1, uses_anonymous_args = 0
 160              		@ link register save eliminated.
 161 0000 80B4     		push	{r7}
 162              		.cfi_def_cfa_offset 4
 163              		.cfi_offset 7, -4
 164 0002 00AF     		add	r7, sp, #0
 165              		.cfi_def_cfa_register 7
  41:..\ugfx_2.6\src\gos/gos_raw32.c **** 	/* ToDo */
  42:..\ugfx_2.6\src\gos/gos_raw32.c **** }
 166              		.loc 2 42 0
 167 0004 BD46     		mov	sp, r7
 168              		.cfi_def_cfa_register 13
 169              		@ sp needed
 170 0006 5DF8047B 		ldr	r7, [sp], #4
 171              		.cfi_restore 7
 172              		.cfi_def_cfa_offset 0
 173 000a 7047     		bx	lr
 174              		.cfi_endproc
 175              	.LFE3:
ARM GAS  C:\Users\joel\AppData\Local\Temp\cc53xt53.s 			page 8


 176              		.size	_gosDeinit, .-_gosDeinit
 177              		.section	.text.gfxHalt,"ax",%progbits
 178              		.align	2
 179              		.global	gfxHalt
 180              		.thumb
 181              		.thumb_func
 182              		.type	gfxHalt, %function
 183              	gfxHalt:
 184              	.LFB4:
  43:..\ugfx_2.6\src\gos/gos_raw32.c **** 
  44:..\ugfx_2.6\src\gos/gos_raw32.c **** /*********************************************************
  45:..\ugfx_2.6\src\gos/gos_raw32.c ****  * For Win32 emulation - automatically add the tick functions
  46:..\ugfx_2.6\src\gos/gos_raw32.c ****  * the user would normally have to provide for bare metal.
  47:..\ugfx_2.6\src\gos/gos_raw32.c ****  *********************************************************/
  48:..\ugfx_2.6\src\gos/gos_raw32.c **** 
  49:..\ugfx_2.6\src\gos/gos_raw32.c **** #if defined(WIN32)
  50:..\ugfx_2.6\src\gos/gos_raw32.c **** 	// Win32 nasty stuff - we have conflicting definitions for Red, Green & Blue
  51:..\ugfx_2.6\src\gos/gos_raw32.c **** 	#ifndef _WIN32_WINNT
  52:..\ugfx_2.6\src\gos/gos_raw32.c **** 		#define _WIN32_WINNT 0x0501			// Windows XP and up
  53:..\ugfx_2.6\src\gos/gos_raw32.c **** 	#endif
  54:..\ugfx_2.6\src\gos/gos_raw32.c **** 	#undef Red
  55:..\ugfx_2.6\src\gos/gos_raw32.c **** 	#undef Green
  56:..\ugfx_2.6\src\gos/gos_raw32.c **** 	#undef Blue
  57:..\ugfx_2.6\src\gos/gos_raw32.c **** 	#define WIN32_LEAN_AND_MEAN
  58:..\ugfx_2.6\src\gos/gos_raw32.c **** 	#include <windows.h>
  59:..\ugfx_2.6\src\gos/gos_raw32.c **** 	#undef WIN32_LEAN_AND_MEAN
  60:..\ugfx_2.6\src\gos/gos_raw32.c **** 	#define Blue			HTML2COLOR(0x0000FF)
  61:..\ugfx_2.6\src\gos/gos_raw32.c **** 	#define Red				HTML2COLOR(0xFF0000)
  62:..\ugfx_2.6\src\gos/gos_raw32.c **** 	#define Green			HTML2COLOR(0x008000)
  63:..\ugfx_2.6\src\gos/gos_raw32.c **** 
  64:..\ugfx_2.6\src\gos/gos_raw32.c **** 	#include <stdio.h>
  65:..\ugfx_2.6\src\gos/gos_raw32.c **** 	systemticks_t gfxSystemTicks(void)						{ return GetTickCount(); }
  66:..\ugfx_2.6\src\gos/gos_raw32.c **** 	systemticks_t gfxMillisecondsToTicks(delaytime_t ms)	{ return ms; }
  67:..\ugfx_2.6\src\gos/gos_raw32.c **** #endif
  68:..\ugfx_2.6\src\gos/gos_raw32.c **** 
  69:..\ugfx_2.6\src\gos/gos_raw32.c **** /*********************************************************
  70:..\ugfx_2.6\src\gos/gos_raw32.c ****  * Exit everything functions
  71:..\ugfx_2.6\src\gos/gos_raw32.c ****  *********************************************************/
  72:..\ugfx_2.6\src\gos/gos_raw32.c **** 
  73:..\ugfx_2.6\src\gos/gos_raw32.c **** void gfxHalt(const char *msg) {
 185              		.loc 2 73 0
 186              		.cfi_startproc
 187              		@ args = 0, pretend = 0, frame = 16
 188              		@ frame_needed = 1, uses_anonymous_args = 0
 189              		@ link register save eliminated.
 190 0000 80B4     		push	{r7}
 191              		.cfi_def_cfa_offset 4
 192              		.cfi_offset 7, -4
 193 0002 85B0     		sub	sp, sp, #20
 194              		.cfi_def_cfa_offset 24
 195 0004 00AF     		add	r7, sp, #0
 196              		.cfi_def_cfa_register 7
 197 0006 7860     		str	r0, [r7, #4]
 198              	.L14:
  74:..\ugfx_2.6\src\gos/gos_raw32.c **** 	#if defined(WIN32)
  75:..\ugfx_2.6\src\gos/gos_raw32.c **** 		fprintf(stderr, "%s\n", msg);
  76:..\ugfx_2.6\src\gos/gos_raw32.c **** 		ExitProcess(1);
ARM GAS  C:\Users\joel\AppData\Local\Temp\cc53xt53.s 			page 9


  77:..\ugfx_2.6\src\gos/gos_raw32.c **** 	#else
  78:..\ugfx_2.6\src\gos/gos_raw32.c **** 		volatile uint32_t	dummy;
  79:..\ugfx_2.6\src\gos/gos_raw32.c **** 		(void)				msg;
  80:..\ugfx_2.6\src\gos/gos_raw32.c **** 
  81:..\ugfx_2.6\src\gos/gos_raw32.c **** 		while(1)
  82:..\ugfx_2.6\src\gos/gos_raw32.c **** 			dummy++;
 199              		.loc 2 82 0 discriminator 1
 200 0008 FB68     		ldr	r3, [r7, #12]
 201 000a 0133     		adds	r3, r3, #1
 202 000c FB60     		str	r3, [r7, #12]
 203 000e FBE7     		b	.L14
 204              		.cfi_endproc
 205              	.LFE4:
 206              		.size	gfxHalt, .-gfxHalt
 207              		.section	.text.gfxExit,"ax",%progbits
 208              		.align	2
 209              		.global	gfxExit
 210              		.thumb
 211              		.thumb_func
 212              		.type	gfxExit, %function
 213              	gfxExit:
 214              	.LFB5:
  83:..\ugfx_2.6\src\gos/gos_raw32.c **** 	#endif
  84:..\ugfx_2.6\src\gos/gos_raw32.c **** }
  85:..\ugfx_2.6\src\gos/gos_raw32.c **** 
  86:..\ugfx_2.6\src\gos/gos_raw32.c **** void gfxExit(void) {
 215              		.loc 2 86 0
 216              		.cfi_startproc
 217              		@ args = 0, pretend = 0, frame = 8
 218              		@ frame_needed = 1, uses_anonymous_args = 0
 219              		@ link register save eliminated.
 220 0000 80B4     		push	{r7}
 221              		.cfi_def_cfa_offset 4
 222              		.cfi_offset 7, -4
 223 0002 83B0     		sub	sp, sp, #12
 224              		.cfi_def_cfa_offset 16
 225 0004 00AF     		add	r7, sp, #0
 226              		.cfi_def_cfa_register 7
 227              	.L16:
  87:..\ugfx_2.6\src\gos/gos_raw32.c **** 	#if defined(WIN32)
  88:..\ugfx_2.6\src\gos/gos_raw32.c **** 		ExitProcess(0);
  89:..\ugfx_2.6\src\gos/gos_raw32.c **** 	#else
  90:..\ugfx_2.6\src\gos/gos_raw32.c **** 		volatile uint32_t	dummy;
  91:..\ugfx_2.6\src\gos/gos_raw32.c **** 
  92:..\ugfx_2.6\src\gos/gos_raw32.c **** 		while(1)
  93:..\ugfx_2.6\src\gos/gos_raw32.c **** 			dummy++;
 228              		.loc 2 93 0 discriminator 1
 229 0006 7B68     		ldr	r3, [r7, #4]
 230 0008 0133     		adds	r3, r3, #1
 231 000a 7B60     		str	r3, [r7, #4]
 232 000c FBE7     		b	.L16
 233              		.cfi_endproc
 234              	.LFE5:
 235              		.size	gfxExit, .-gfxExit
 236 000e 00BF     		.section	.text.gfxSystemLock,"ax",%progbits
 237              		.align	2
 238              		.global	gfxSystemLock
ARM GAS  C:\Users\joel\AppData\Local\Temp\cc53xt53.s 			page 10


 239              		.thumb
 240              		.thumb_func
 241              		.type	gfxSystemLock, %function
 242              	gfxSystemLock:
 243              	.LFB6:
 244              		.file 3 "..\\ugfx_2.6\\src\\gos/gos_x_threads.c"
   1:..\ugfx_2.6\src\gos/gos_x_threads.c **** /*
   2:..\ugfx_2.6\src\gos/gos_x_threads.c ****  * This file is subject to the terms of the GFX License. If a copy of
   3:..\ugfx_2.6\src\gos/gos_x_threads.c ****  * the license was not distributed with this file, you can obtain one at:
   4:..\ugfx_2.6\src\gos/gos_x_threads.c ****  *
   5:..\ugfx_2.6\src\gos/gos_x_threads.c ****  *              http://ugfx.org/license.html
   6:..\ugfx_2.6\src\gos/gos_x_threads.c ****  */
   7:..\ugfx_2.6\src\gos/gos_x_threads.c **** 
   8:..\ugfx_2.6\src\gos/gos_x_threads.c **** #include "../../gfx.h"
   9:..\ugfx_2.6\src\gos/gos_x_threads.c **** 
  10:..\ugfx_2.6\src\gos/gos_x_threads.c **** #if GOS_NEED_X_THREADS
  11:..\ugfx_2.6\src\gos/gos_x_threads.c **** 
  12:..\ugfx_2.6\src\gos/gos_x_threads.c **** /*********************************************************
  13:..\ugfx_2.6\src\gos/gos_x_threads.c ****  * Semaphores and critical region functions
  14:..\ugfx_2.6\src\gos/gos_x_threads.c ****  *********************************************************/
  15:..\ugfx_2.6\src\gos/gos_x_threads.c **** 
  16:..\ugfx_2.6\src\gos/gos_x_threads.c **** #if !defined(INTERRUPTS_OFF) || !defined(INTERRUPTS_ON)
  17:..\ugfx_2.6\src\gos/gos_x_threads.c **** 	#define INTERRUPTS_OFF()
  18:..\ugfx_2.6\src\gos/gos_x_threads.c **** 	#define INTERRUPTS_ON()
  19:..\ugfx_2.6\src\gos/gos_x_threads.c **** #endif
  20:..\ugfx_2.6\src\gos/gos_x_threads.c **** 
  21:..\ugfx_2.6\src\gos/gos_x_threads.c **** void gfxSystemLock(void) {
 245              		.loc 3 21 0
 246              		.cfi_startproc
 247              		@ args = 0, pretend = 0, frame = 0
 248              		@ frame_needed = 1, uses_anonymous_args = 0
 249              		@ link register save eliminated.
 250 0000 80B4     		push	{r7}
 251              		.cfi_def_cfa_offset 4
 252              		.cfi_offset 7, -4
 253 0002 00AF     		add	r7, sp, #0
 254              		.cfi_def_cfa_register 7
  22:..\ugfx_2.6\src\gos/gos_x_threads.c **** 	INTERRUPTS_OFF();
  23:..\ugfx_2.6\src\gos/gos_x_threads.c **** }
 255              		.loc 3 23 0
 256 0004 BD46     		mov	sp, r7
 257              		.cfi_def_cfa_register 13
 258              		@ sp needed
 259 0006 5DF8047B 		ldr	r7, [sp], #4
 260              		.cfi_restore 7
 261              		.cfi_def_cfa_offset 0
 262 000a 7047     		bx	lr
 263              		.cfi_endproc
 264              	.LFE6:
 265              		.size	gfxSystemLock, .-gfxSystemLock
 266              		.section	.text.gfxSystemUnlock,"ax",%progbits
 267              		.align	2
 268              		.global	gfxSystemUnlock
 269              		.thumb
 270              		.thumb_func
 271              		.type	gfxSystemUnlock, %function
 272              	gfxSystemUnlock:
ARM GAS  C:\Users\joel\AppData\Local\Temp\cc53xt53.s 			page 11


 273              	.LFB7:
  24:..\ugfx_2.6\src\gos/gos_x_threads.c **** 
  25:..\ugfx_2.6\src\gos/gos_x_threads.c **** void gfxSystemUnlock(void) {
 274              		.loc 3 25 0
 275              		.cfi_startproc
 276              		@ args = 0, pretend = 0, frame = 0
 277              		@ frame_needed = 1, uses_anonymous_args = 0
 278              		@ link register save eliminated.
 279 0000 80B4     		push	{r7}
 280              		.cfi_def_cfa_offset 4
 281              		.cfi_offset 7, -4
 282 0002 00AF     		add	r7, sp, #0
 283              		.cfi_def_cfa_register 7
  26:..\ugfx_2.6\src\gos/gos_x_threads.c **** 	INTERRUPTS_ON();
  27:..\ugfx_2.6\src\gos/gos_x_threads.c **** }
 284              		.loc 3 27 0
 285 0004 BD46     		mov	sp, r7
 286              		.cfi_def_cfa_register 13
 287              		@ sp needed
 288 0006 5DF8047B 		ldr	r7, [sp], #4
 289              		.cfi_restore 7
 290              		.cfi_def_cfa_offset 0
 291 000a 7047     		bx	lr
 292              		.cfi_endproc
 293              	.LFE7:
 294              		.size	gfxSystemUnlock, .-gfxSystemUnlock
 295              		.section	.text.gfxMutexInit,"ax",%progbits
 296              		.align	2
 297              		.global	gfxMutexInit
 298              		.thumb
 299              		.thumb_func
 300              		.type	gfxMutexInit, %function
 301              	gfxMutexInit:
 302              	.LFB8:
  28:..\ugfx_2.6\src\gos/gos_x_threads.c **** 
  29:..\ugfx_2.6\src\gos/gos_x_threads.c **** void gfxMutexInit(gfxMutex *pmutex) {
 303              		.loc 3 29 0
 304              		.cfi_startproc
 305              		@ args = 0, pretend = 0, frame = 8
 306              		@ frame_needed = 1, uses_anonymous_args = 0
 307              		@ link register save eliminated.
 308 0000 80B4     		push	{r7}
 309              		.cfi_def_cfa_offset 4
 310              		.cfi_offset 7, -4
 311 0002 83B0     		sub	sp, sp, #12
 312              		.cfi_def_cfa_offset 16
 313 0004 00AF     		add	r7, sp, #0
 314              		.cfi_def_cfa_register 7
 315 0006 7860     		str	r0, [r7, #4]
  30:..\ugfx_2.6\src\gos/gos_x_threads.c **** 	pmutex[0] = 0;
 316              		.loc 3 30 0
 317 0008 7B68     		ldr	r3, [r7, #4]
 318 000a 0022     		movs	r2, #0
 319 000c 1A60     		str	r2, [r3]
  31:..\ugfx_2.6\src\gos/gos_x_threads.c **** }
 320              		.loc 3 31 0
 321 000e 0C37     		adds	r7, r7, #12
ARM GAS  C:\Users\joel\AppData\Local\Temp\cc53xt53.s 			page 12


 322              		.cfi_def_cfa_offset 4
 323 0010 BD46     		mov	sp, r7
 324              		.cfi_def_cfa_register 13
 325              		@ sp needed
 326 0012 5DF8047B 		ldr	r7, [sp], #4
 327              		.cfi_restore 7
 328              		.cfi_def_cfa_offset 0
 329 0016 7047     		bx	lr
 330              		.cfi_endproc
 331              	.LFE8:
 332              		.size	gfxMutexInit, .-gfxMutexInit
 333              		.section	.text.gfxMutexEnter,"ax",%progbits
 334              		.align	2
 335              		.global	gfxMutexEnter
 336              		.thumb
 337              		.thumb_func
 338              		.type	gfxMutexEnter, %function
 339              	gfxMutexEnter:
 340              	.LFB9:
  32:..\ugfx_2.6\src\gos/gos_x_threads.c **** 
  33:..\ugfx_2.6\src\gos/gos_x_threads.c **** void gfxMutexEnter(gfxMutex *pmutex) {
 341              		.loc 3 33 0
 342              		.cfi_startproc
 343              		@ args = 0, pretend = 0, frame = 8
 344              		@ frame_needed = 1, uses_anonymous_args = 0
 345 0000 80B5     		push	{r7, lr}
 346              		.cfi_def_cfa_offset 8
 347              		.cfi_offset 7, -8
 348              		.cfi_offset 14, -4
 349 0002 82B0     		sub	sp, sp, #8
 350              		.cfi_def_cfa_offset 16
 351 0004 00AF     		add	r7, sp, #0
 352              		.cfi_def_cfa_register 7
 353 0006 7860     		str	r0, [r7, #4]
  34:..\ugfx_2.6\src\gos/gos_x_threads.c **** 	INTERRUPTS_OFF();
  35:..\ugfx_2.6\src\gos/gos_x_threads.c **** 	while (pmutex[0]) {
 354              		.loc 3 35 0
 355 0008 01E0     		b	.L21
 356              	.L22:
  36:..\ugfx_2.6\src\gos/gos_x_threads.c **** 		INTERRUPTS_ON();
  37:..\ugfx_2.6\src\gos/gos_x_threads.c **** 		gfxYield();
 357              		.loc 3 37 0
 358 000a FFF7FEFF 		bl	gfxYield
 359              	.L21:
  35:..\ugfx_2.6\src\gos/gos_x_threads.c **** 		INTERRUPTS_ON();
 360              		.loc 3 35 0
 361 000e 7B68     		ldr	r3, [r7, #4]
 362 0010 1B68     		ldr	r3, [r3]
 363 0012 002B     		cmp	r3, #0
 364 0014 F9D1     		bne	.L22
  38:..\ugfx_2.6\src\gos/gos_x_threads.c **** 		INTERRUPTS_OFF();
  39:..\ugfx_2.6\src\gos/gos_x_threads.c **** 	}
  40:..\ugfx_2.6\src\gos/gos_x_threads.c **** 	pmutex[0] = 1;
 365              		.loc 3 40 0
 366 0016 7B68     		ldr	r3, [r7, #4]
 367 0018 0122     		movs	r2, #1
 368 001a 1A60     		str	r2, [r3]
ARM GAS  C:\Users\joel\AppData\Local\Temp\cc53xt53.s 			page 13


  41:..\ugfx_2.6\src\gos/gos_x_threads.c **** 	INTERRUPTS_ON();
  42:..\ugfx_2.6\src\gos/gos_x_threads.c **** }
 369              		.loc 3 42 0
 370 001c 0837     		adds	r7, r7, #8
 371              		.cfi_def_cfa_offset 8
 372 001e BD46     		mov	sp, r7
 373              		.cfi_def_cfa_register 13
 374              		@ sp needed
 375 0020 80BD     		pop	{r7, pc}
 376              		.cfi_endproc
 377              	.LFE9:
 378              		.size	gfxMutexEnter, .-gfxMutexEnter
 379 0022 00BF     		.section	.text.gfxMutexExit,"ax",%progbits
 380              		.align	2
 381              		.global	gfxMutexExit
 382              		.thumb
 383              		.thumb_func
 384              		.type	gfxMutexExit, %function
 385              	gfxMutexExit:
 386              	.LFB10:
  43:..\ugfx_2.6\src\gos/gos_x_threads.c **** 
  44:..\ugfx_2.6\src\gos/gos_x_threads.c **** void gfxMutexExit(gfxMutex *pmutex) {
 387              		.loc 3 44 0
 388              		.cfi_startproc
 389              		@ args = 0, pretend = 0, frame = 8
 390              		@ frame_needed = 1, uses_anonymous_args = 0
 391              		@ link register save eliminated.
 392 0000 80B4     		push	{r7}
 393              		.cfi_def_cfa_offset 4
 394              		.cfi_offset 7, -4
 395 0002 83B0     		sub	sp, sp, #12
 396              		.cfi_def_cfa_offset 16
 397 0004 00AF     		add	r7, sp, #0
 398              		.cfi_def_cfa_register 7
 399 0006 7860     		str	r0, [r7, #4]
  45:..\ugfx_2.6\src\gos/gos_x_threads.c **** 	pmutex[0] = 0;
 400              		.loc 3 45 0
 401 0008 7B68     		ldr	r3, [r7, #4]
 402 000a 0022     		movs	r2, #0
 403 000c 1A60     		str	r2, [r3]
  46:..\ugfx_2.6\src\gos/gos_x_threads.c **** }
 404              		.loc 3 46 0
 405 000e 0C37     		adds	r7, r7, #12
 406              		.cfi_def_cfa_offset 4
 407 0010 BD46     		mov	sp, r7
 408              		.cfi_def_cfa_register 13
 409              		@ sp needed
 410 0012 5DF8047B 		ldr	r7, [sp], #4
 411              		.cfi_restore 7
 412              		.cfi_def_cfa_offset 0
 413 0016 7047     		bx	lr
 414              		.cfi_endproc
 415              	.LFE10:
 416              		.size	gfxMutexExit, .-gfxMutexExit
 417              		.section	.text.gfxSemInit,"ax",%progbits
 418              		.align	2
 419              		.global	gfxSemInit
ARM GAS  C:\Users\joel\AppData\Local\Temp\cc53xt53.s 			page 14


 420              		.thumb
 421              		.thumb_func
 422              		.type	gfxSemInit, %function
 423              	gfxSemInit:
 424              	.LFB11:
  47:..\ugfx_2.6\src\gos/gos_x_threads.c **** 
  48:..\ugfx_2.6\src\gos/gos_x_threads.c **** void gfxSemInit(gfxSem *psem, semcount_t val, semcount_t limit) {
 425              		.loc 3 48 0
 426              		.cfi_startproc
 427              		@ args = 0, pretend = 0, frame = 8
 428              		@ frame_needed = 1, uses_anonymous_args = 0
 429              		@ link register save eliminated.
 430 0000 80B4     		push	{r7}
 431              		.cfi_def_cfa_offset 4
 432              		.cfi_offset 7, -4
 433 0002 83B0     		sub	sp, sp, #12
 434              		.cfi_def_cfa_offset 16
 435 0004 00AF     		add	r7, sp, #0
 436              		.cfi_def_cfa_register 7
 437 0006 7860     		str	r0, [r7, #4]
 438 0008 0B46     		mov	r3, r1
 439 000a 7B80     		strh	r3, [r7, #2]	@ movhi
 440 000c 1346     		mov	r3, r2	@ movhi
 441 000e 3B80     		strh	r3, [r7]	@ movhi
  49:..\ugfx_2.6\src\gos/gos_x_threads.c **** 	psem->cnt = val;
 442              		.loc 3 49 0
 443 0010 7B68     		ldr	r3, [r7, #4]
 444 0012 7A88     		ldrh	r2, [r7, #2]	@ movhi
 445 0014 1A80     		strh	r2, [r3]	@ movhi
  50:..\ugfx_2.6\src\gos/gos_x_threads.c **** 	psem->limit = limit;
 446              		.loc 3 50 0
 447 0016 7B68     		ldr	r3, [r7, #4]
 448 0018 3A88     		ldrh	r2, [r7]	@ movhi
 449 001a 5A80     		strh	r2, [r3, #2]	@ movhi
  51:..\ugfx_2.6\src\gos/gos_x_threads.c **** }
 450              		.loc 3 51 0
 451 001c 0C37     		adds	r7, r7, #12
 452              		.cfi_def_cfa_offset 4
 453 001e BD46     		mov	sp, r7
 454              		.cfi_def_cfa_register 13
 455              		@ sp needed
 456 0020 5DF8047B 		ldr	r7, [sp], #4
 457              		.cfi_restore 7
 458              		.cfi_def_cfa_offset 0
 459 0024 7047     		bx	lr
 460              		.cfi_endproc
 461              	.LFE11:
 462              		.size	gfxSemInit, .-gfxSemInit
 463 0026 00BF     		.section	.text.gfxSemWait,"ax",%progbits
 464              		.align	2
 465              		.global	gfxSemWait
 466              		.thumb
 467              		.thumb_func
 468              		.type	gfxSemWait, %function
 469              	gfxSemWait:
 470              	.LFB12:
  52:..\ugfx_2.6\src\gos/gos_x_threads.c **** 
ARM GAS  C:\Users\joel\AppData\Local\Temp\cc53xt53.s 			page 15


  53:..\ugfx_2.6\src\gos/gos_x_threads.c **** bool_t gfxSemWait(gfxSem *psem, delaytime_t ms) {
 471              		.loc 3 53 0
 472              		.cfi_startproc
 473              		@ args = 0, pretend = 0, frame = 16
 474              		@ frame_needed = 1, uses_anonymous_args = 0
 475 0000 80B5     		push	{r7, lr}
 476              		.cfi_def_cfa_offset 8
 477              		.cfi_offset 7, -8
 478              		.cfi_offset 14, -4
 479 0002 84B0     		sub	sp, sp, #16
 480              		.cfi_def_cfa_offset 24
 481 0004 00AF     		add	r7, sp, #0
 482              		.cfi_def_cfa_register 7
 483 0006 7860     		str	r0, [r7, #4]
 484 0008 3960     		str	r1, [r7]
  54:..\ugfx_2.6\src\gos/gos_x_threads.c **** 	systemticks_t	starttm, delay;
  55:..\ugfx_2.6\src\gos/gos_x_threads.c **** 
  56:..\ugfx_2.6\src\gos/gos_x_threads.c **** 	// Convert our delay to ticks
  57:..\ugfx_2.6\src\gos/gos_x_threads.c **** 	starttm = 0;
 485              		.loc 3 57 0
 486 000a 0023     		movs	r3, #0
 487 000c FB60     		str	r3, [r7, #12]
  58:..\ugfx_2.6\src\gos/gos_x_threads.c **** 	switch (ms) {
 488              		.loc 3 58 0
 489 000e 3B68     		ldr	r3, [r7]
 490 0010 002B     		cmp	r3, #0
 491 0012 03D0     		beq	.L27
 492 0014 B3F1FF3F 		cmp	r3, #-1
 493 0018 03D0     		beq	.L28
 494 001a 06E0     		b	.L39
 495              	.L27:
  59:..\ugfx_2.6\src\gos/gos_x_threads.c **** 	case TIME_IMMEDIATE:
  60:..\ugfx_2.6\src\gos/gos_x_threads.c **** 		delay = TIME_IMMEDIATE;
 496              		.loc 3 60 0
 497 001c 0023     		movs	r3, #0
 498 001e BB60     		str	r3, [r7, #8]
  61:..\ugfx_2.6\src\gos/gos_x_threads.c **** 		break;
 499              		.loc 3 61 0
 500 0020 0FE0     		b	.L29
 501              	.L28:
  62:..\ugfx_2.6\src\gos/gos_x_threads.c **** 	case TIME_INFINITE:
  63:..\ugfx_2.6\src\gos/gos_x_threads.c **** 		delay = TIME_INFINITE;
 502              		.loc 3 63 0
 503 0022 4FF0FF33 		mov	r3, #-1
 504 0026 BB60     		str	r3, [r7, #8]
  64:..\ugfx_2.6\src\gos/gos_x_threads.c **** 		break;
 505              		.loc 3 64 0
 506 0028 0BE0     		b	.L29
 507              	.L39:
  65:..\ugfx_2.6\src\gos/gos_x_threads.c **** 	default:
  66:..\ugfx_2.6\src\gos/gos_x_threads.c **** 		delay = gfxMillisecondsToTicks(ms);
 508              		.loc 3 66 0
 509 002a 3868     		ldr	r0, [r7]
 510 002c FFF7FEFF 		bl	gfxMillisecondsToTicks
 511 0030 B860     		str	r0, [r7, #8]
  67:..\ugfx_2.6\src\gos/gos_x_threads.c **** 		if (!delay) delay = 1;
 512              		.loc 3 67 0
ARM GAS  C:\Users\joel\AppData\Local\Temp\cc53xt53.s 			page 16


 513 0032 BB68     		ldr	r3, [r7, #8]
 514 0034 002B     		cmp	r3, #0
 515 0036 01D1     		bne	.L30
 516              		.loc 3 67 0 is_stmt 0 discriminator 1
 517 0038 0123     		movs	r3, #1
 518 003a BB60     		str	r3, [r7, #8]
 519              	.L30:
  68:..\ugfx_2.6\src\gos/gos_x_threads.c **** 		starttm = gfxSystemTicks();
 520              		.loc 3 68 0 is_stmt 1
 521 003c FFF7FEFF 		bl	gfxSystemTicks
 522 0040 F860     		str	r0, [r7, #12]
 523              	.L29:
  69:..\ugfx_2.6\src\gos/gos_x_threads.c **** 	}
  70:..\ugfx_2.6\src\gos/gos_x_threads.c **** 
  71:..\ugfx_2.6\src\gos/gos_x_threads.c **** 	INTERRUPTS_OFF();
  72:..\ugfx_2.6\src\gos/gos_x_threads.c **** 	while (psem->cnt <= 0) {
 524              		.loc 3 72 0
 525 0042 16E0     		b	.L31
 526              	.L38:
  73:..\ugfx_2.6\src\gos/gos_x_threads.c **** 		INTERRUPTS_ON();
  74:..\ugfx_2.6\src\gos/gos_x_threads.c **** 		// Check if we have exceeded the defined delay
  75:..\ugfx_2.6\src\gos/gos_x_threads.c **** 		switch (delay) {
 527              		.loc 3 75 0
 528 0044 BB68     		ldr	r3, [r7, #8]
 529 0046 002B     		cmp	r3, #0
 530 0048 03D0     		beq	.L33
 531 004a B3F1FF3F 		cmp	r3, #-1
 532 004e 0DD0     		beq	.L41
 533 0050 01E0     		b	.L40
 534              	.L33:
  76:..\ugfx_2.6\src\gos/gos_x_threads.c **** 		case TIME_IMMEDIATE:
  77:..\ugfx_2.6\src\gos/gos_x_threads.c **** 			return FALSE;
 535              		.loc 3 77 0
 536 0052 0023     		movs	r3, #0
 537 0054 1CE0     		b	.L35
 538              	.L40:
  78:..\ugfx_2.6\src\gos/gos_x_threads.c **** 		case TIME_INFINITE:
  79:..\ugfx_2.6\src\gos/gos_x_threads.c **** 			break;
  80:..\ugfx_2.6\src\gos/gos_x_threads.c **** 		default:
  81:..\ugfx_2.6\src\gos/gos_x_threads.c **** 			if (gfxSystemTicks() - starttm >= delay)
 539              		.loc 3 81 0
 540 0056 FFF7FEFF 		bl	gfxSystemTicks
 541 005a 0246     		mov	r2, r0
 542 005c FB68     		ldr	r3, [r7, #12]
 543 005e D21A     		subs	r2, r2, r3
 544 0060 BB68     		ldr	r3, [r7, #8]
 545 0062 9A42     		cmp	r2, r3
 546 0064 01D3     		bcc	.L37
  82:..\ugfx_2.6\src\gos/gos_x_threads.c **** 				return FALSE;
 547              		.loc 3 82 0
 548 0066 0023     		movs	r3, #0
 549 0068 12E0     		b	.L35
 550              	.L37:
  83:..\ugfx_2.6\src\gos/gos_x_threads.c **** 			break;
 551              		.loc 3 83 0
 552 006a 00E0     		b	.L36
 553              	.L41:
ARM GAS  C:\Users\joel\AppData\Local\Temp\cc53xt53.s 			page 17


  79:..\ugfx_2.6\src\gos/gos_x_threads.c **** 		default:
 554              		.loc 3 79 0
 555 006c 00BF     		nop
 556              	.L36:
  84:..\ugfx_2.6\src\gos/gos_x_threads.c **** 		}
  85:..\ugfx_2.6\src\gos/gos_x_threads.c **** 		gfxYield();
 557              		.loc 3 85 0
 558 006e FFF7FEFF 		bl	gfxYield
 559              	.L31:
  72:..\ugfx_2.6\src\gos/gos_x_threads.c **** 		INTERRUPTS_ON();
 560              		.loc 3 72 0
 561 0072 7B68     		ldr	r3, [r7, #4]
 562 0074 1B88     		ldrh	r3, [r3]
 563 0076 1BB2     		sxth	r3, r3
 564 0078 002B     		cmp	r3, #0
 565 007a E3DD     		ble	.L38
  86:..\ugfx_2.6\src\gos/gos_x_threads.c **** 		INTERRUPTS_OFF();
  87:..\ugfx_2.6\src\gos/gos_x_threads.c **** 	}
  88:..\ugfx_2.6\src\gos/gos_x_threads.c **** 	psem->cnt--;
 566              		.loc 3 88 0
 567 007c 7B68     		ldr	r3, [r7, #4]
 568 007e 1B88     		ldrh	r3, [r3]
 569 0080 9BB2     		uxth	r3, r3
 570 0082 9BB2     		uxth	r3, r3
 571 0084 013B     		subs	r3, r3, #1
 572 0086 9BB2     		uxth	r3, r3
 573 0088 9AB2     		uxth	r2, r3
 574 008a 7B68     		ldr	r3, [r7, #4]
 575 008c 1A80     		strh	r2, [r3]	@ movhi
  89:..\ugfx_2.6\src\gos/gos_x_threads.c **** 	INTERRUPTS_ON();
  90:..\ugfx_2.6\src\gos/gos_x_threads.c **** 	return TRUE;
 576              		.loc 3 90 0
 577 008e FF23     		movs	r3, #255
 578              	.L35:
  91:..\ugfx_2.6\src\gos/gos_x_threads.c **** }
 579              		.loc 3 91 0
 580 0090 1846     		mov	r0, r3
 581 0092 1037     		adds	r7, r7, #16
 582              		.cfi_def_cfa_offset 8
 583 0094 BD46     		mov	sp, r7
 584              		.cfi_def_cfa_register 13
 585              		@ sp needed
 586 0096 80BD     		pop	{r7, pc}
 587              		.cfi_endproc
 588              	.LFE12:
 589              		.size	gfxSemWait, .-gfxSemWait
 590              		.section	.text.gfxSemWaitI,"ax",%progbits
 591              		.align	2
 592              		.global	gfxSemWaitI
 593              		.thumb
 594              		.thumb_func
 595              		.type	gfxSemWaitI, %function
 596              	gfxSemWaitI:
 597              	.LFB13:
  92:..\ugfx_2.6\src\gos/gos_x_threads.c **** 
  93:..\ugfx_2.6\src\gos/gos_x_threads.c **** bool_t gfxSemWaitI(gfxSem *psem) {
 598              		.loc 3 93 0
ARM GAS  C:\Users\joel\AppData\Local\Temp\cc53xt53.s 			page 18


 599              		.cfi_startproc
 600              		@ args = 0, pretend = 0, frame = 8
 601              		@ frame_needed = 1, uses_anonymous_args = 0
 602              		@ link register save eliminated.
 603 0000 80B4     		push	{r7}
 604              		.cfi_def_cfa_offset 4
 605              		.cfi_offset 7, -4
 606 0002 83B0     		sub	sp, sp, #12
 607              		.cfi_def_cfa_offset 16
 608 0004 00AF     		add	r7, sp, #0
 609              		.cfi_def_cfa_register 7
 610 0006 7860     		str	r0, [r7, #4]
  94:..\ugfx_2.6\src\gos/gos_x_threads.c **** 	if (psem->cnt <= 0)
 611              		.loc 3 94 0
 612 0008 7B68     		ldr	r3, [r7, #4]
 613 000a 1B88     		ldrh	r3, [r3]
 614 000c 1BB2     		sxth	r3, r3
 615 000e 002B     		cmp	r3, #0
 616 0010 01DC     		bgt	.L43
  95:..\ugfx_2.6\src\gos/gos_x_threads.c **** 		return FALSE;
 617              		.loc 3 95 0
 618 0012 0023     		movs	r3, #0
 619 0014 09E0     		b	.L44
 620              	.L43:
  96:..\ugfx_2.6\src\gos/gos_x_threads.c **** 	psem->cnt--;
 621              		.loc 3 96 0
 622 0016 7B68     		ldr	r3, [r7, #4]
 623 0018 1B88     		ldrh	r3, [r3]
 624 001a 9BB2     		uxth	r3, r3
 625 001c 9BB2     		uxth	r3, r3
 626 001e 013B     		subs	r3, r3, #1
 627 0020 9BB2     		uxth	r3, r3
 628 0022 9AB2     		uxth	r2, r3
 629 0024 7B68     		ldr	r3, [r7, #4]
 630 0026 1A80     		strh	r2, [r3]	@ movhi
  97:..\ugfx_2.6\src\gos/gos_x_threads.c **** 	return TRUE;
 631              		.loc 3 97 0
 632 0028 FF23     		movs	r3, #255
 633              	.L44:
  98:..\ugfx_2.6\src\gos/gos_x_threads.c **** }
 634              		.loc 3 98 0
 635 002a 1846     		mov	r0, r3
 636 002c 0C37     		adds	r7, r7, #12
 637              		.cfi_def_cfa_offset 4
 638 002e BD46     		mov	sp, r7
 639              		.cfi_def_cfa_register 13
 640              		@ sp needed
 641 0030 5DF8047B 		ldr	r7, [sp], #4
 642              		.cfi_restore 7
 643              		.cfi_def_cfa_offset 0
 644 0034 7047     		bx	lr
 645              		.cfi_endproc
 646              	.LFE13:
 647              		.size	gfxSemWaitI, .-gfxSemWaitI
 648 0036 00BF     		.section	.text.gfxSemSignal,"ax",%progbits
 649              		.align	2
 650              		.global	gfxSemSignal
ARM GAS  C:\Users\joel\AppData\Local\Temp\cc53xt53.s 			page 19


 651              		.thumb
 652              		.thumb_func
 653              		.type	gfxSemSignal, %function
 654              	gfxSemSignal:
 655              	.LFB14:
  99:..\ugfx_2.6\src\gos/gos_x_threads.c **** 
 100:..\ugfx_2.6\src\gos/gos_x_threads.c **** void gfxSemSignal(gfxSem *psem) {
 656              		.loc 3 100 0
 657              		.cfi_startproc
 658              		@ args = 0, pretend = 0, frame = 8
 659              		@ frame_needed = 1, uses_anonymous_args = 0
 660 0000 80B5     		push	{r7, lr}
 661              		.cfi_def_cfa_offset 8
 662              		.cfi_offset 7, -8
 663              		.cfi_offset 14, -4
 664 0002 82B0     		sub	sp, sp, #8
 665              		.cfi_def_cfa_offset 16
 666 0004 00AF     		add	r7, sp, #0
 667              		.cfi_def_cfa_register 7
 668 0006 7860     		str	r0, [r7, #4]
 101:..\ugfx_2.6\src\gos/gos_x_threads.c **** 	INTERRUPTS_OFF();
 102:..\ugfx_2.6\src\gos/gos_x_threads.c **** 	gfxSemSignalI(psem);
 669              		.loc 3 102 0
 670 0008 7868     		ldr	r0, [r7, #4]
 671 000a FFF7FEFF 		bl	gfxSemSignalI
 103:..\ugfx_2.6\src\gos/gos_x_threads.c **** 	INTERRUPTS_ON();
 104:..\ugfx_2.6\src\gos/gos_x_threads.c **** }
 672              		.loc 3 104 0
 673 000e 0837     		adds	r7, r7, #8
 674              		.cfi_def_cfa_offset 8
 675 0010 BD46     		mov	sp, r7
 676              		.cfi_def_cfa_register 13
 677              		@ sp needed
 678 0012 80BD     		pop	{r7, pc}
 679              		.cfi_endproc
 680              	.LFE14:
 681              		.size	gfxSemSignal, .-gfxSemSignal
 682              		.section	.text.gfxSemSignalI,"ax",%progbits
 683              		.align	2
 684              		.global	gfxSemSignalI
 685              		.thumb
 686              		.thumb_func
 687              		.type	gfxSemSignalI, %function
 688              	gfxSemSignalI:
 689              	.LFB15:
 105:..\ugfx_2.6\src\gos/gos_x_threads.c **** 
 106:..\ugfx_2.6\src\gos/gos_x_threads.c **** void gfxSemSignalI(gfxSem *psem) {
 690              		.loc 3 106 0
 691              		.cfi_startproc
 692              		@ args = 0, pretend = 0, frame = 8
 693              		@ frame_needed = 1, uses_anonymous_args = 0
 694              		@ link register save eliminated.
 695 0000 80B4     		push	{r7}
 696              		.cfi_def_cfa_offset 4
 697              		.cfi_offset 7, -4
 698 0002 83B0     		sub	sp, sp, #12
 699              		.cfi_def_cfa_offset 16
ARM GAS  C:\Users\joel\AppData\Local\Temp\cc53xt53.s 			page 20


 700 0004 00AF     		add	r7, sp, #0
 701              		.cfi_def_cfa_register 7
 702 0006 7860     		str	r0, [r7, #4]
 107:..\ugfx_2.6\src\gos/gos_x_threads.c **** 	if (psem->cnt < psem->limit)
 703              		.loc 3 107 0
 704 0008 7B68     		ldr	r3, [r7, #4]
 705 000a 1A88     		ldrh	r2, [r3]
 706 000c 7B68     		ldr	r3, [r7, #4]
 707 000e 5B88     		ldrh	r3, [r3, #2]
 708 0010 12B2     		sxth	r2, r2
 709 0012 1BB2     		sxth	r3, r3
 710 0014 9A42     		cmp	r2, r3
 711 0016 08DA     		bge	.L46
 108:..\ugfx_2.6\src\gos/gos_x_threads.c **** 		psem->cnt++;
 712              		.loc 3 108 0
 713 0018 7B68     		ldr	r3, [r7, #4]
 714 001a 1B88     		ldrh	r3, [r3]
 715 001c 9BB2     		uxth	r3, r3
 716 001e 9BB2     		uxth	r3, r3
 717 0020 0133     		adds	r3, r3, #1
 718 0022 9BB2     		uxth	r3, r3
 719 0024 9AB2     		uxth	r2, r3
 720 0026 7B68     		ldr	r3, [r7, #4]
 721 0028 1A80     		strh	r2, [r3]	@ movhi
 722              	.L46:
 109:..\ugfx_2.6\src\gos/gos_x_threads.c **** }
 723              		.loc 3 109 0
 724 002a 0C37     		adds	r7, r7, #12
 725              		.cfi_def_cfa_offset 4
 726 002c BD46     		mov	sp, r7
 727              		.cfi_def_cfa_register 13
 728              		@ sp needed
 729 002e 5DF8047B 		ldr	r7, [sp], #4
 730              		.cfi_restore 7
 731              		.cfi_def_cfa_offset 0
 732 0032 7047     		bx	lr
 733              		.cfi_endproc
 734              	.LFE15:
 735              		.size	gfxSemSignalI, .-gfxSemSignalI
 736              		.section	.text.gfxSleepMilliseconds,"ax",%progbits
 737              		.align	2
 738              		.global	gfxSleepMilliseconds
 739              		.thumb
 740              		.thumb_func
 741              		.type	gfxSleepMilliseconds, %function
 742              	gfxSleepMilliseconds:
 743              	.LFB16:
 110:..\ugfx_2.6\src\gos/gos_x_threads.c **** 
 111:..\ugfx_2.6\src\gos/gos_x_threads.c **** /*********************************************************
 112:..\ugfx_2.6\src\gos/gos_x_threads.c ****  * Sleep functions
 113:..\ugfx_2.6\src\gos/gos_x_threads.c ****  *********************************************************/
 114:..\ugfx_2.6\src\gos/gos_x_threads.c **** 
 115:..\ugfx_2.6\src\gos/gos_x_threads.c **** void gfxSleepMilliseconds(delaytime_t ms) {
 744              		.loc 3 115 0
 745              		.cfi_startproc
 746              		@ args = 0, pretend = 0, frame = 16
 747              		@ frame_needed = 1, uses_anonymous_args = 0
ARM GAS  C:\Users\joel\AppData\Local\Temp\cc53xt53.s 			page 21


 748 0000 80B5     		push	{r7, lr}
 749              		.cfi_def_cfa_offset 8
 750              		.cfi_offset 7, -8
 751              		.cfi_offset 14, -4
 752 0002 84B0     		sub	sp, sp, #16
 753              		.cfi_def_cfa_offset 24
 754 0004 00AF     		add	r7, sp, #0
 755              		.cfi_def_cfa_register 7
 756 0006 7860     		str	r0, [r7, #4]
 116:..\ugfx_2.6\src\gos/gos_x_threads.c **** 	systemticks_t	starttm, delay;
 117:..\ugfx_2.6\src\gos/gos_x_threads.c **** 
 118:..\ugfx_2.6\src\gos/gos_x_threads.c **** 	// Safety first
 119:..\ugfx_2.6\src\gos/gos_x_threads.c **** 	switch (ms) {
 757              		.loc 3 119 0
 758 0008 7B68     		ldr	r3, [r7, #4]
 759 000a 002B     		cmp	r3, #0
 760 000c 17D0     		beq	.L55
 761 000e B3F1FF3F 		cmp	r3, #-1
 762 0012 02D1     		bne	.L54
 763              	.L51:
 120:..\ugfx_2.6\src\gos/gos_x_threads.c **** 	case TIME_IMMEDIATE:
 121:..\ugfx_2.6\src\gos/gos_x_threads.c **** 		return;
 122:..\ugfx_2.6\src\gos/gos_x_threads.c **** 	case TIME_INFINITE:
 123:..\ugfx_2.6\src\gos/gos_x_threads.c **** 		while(1)
 124:..\ugfx_2.6\src\gos/gos_x_threads.c **** 			gfxYield();
 764              		.loc 3 124 0 discriminator 1
 765 0014 FFF7FEFF 		bl	gfxYield
 766 0018 FCE7     		b	.L51
 767              	.L54:
 125:..\ugfx_2.6\src\gos/gos_x_threads.c **** 		return;
 126:..\ugfx_2.6\src\gos/gos_x_threads.c **** 	}
 127:..\ugfx_2.6\src\gos/gos_x_threads.c **** 
 128:..\ugfx_2.6\src\gos/gos_x_threads.c **** 	// Convert our delay to ticks
 129:..\ugfx_2.6\src\gos/gos_x_threads.c **** 	delay = gfxMillisecondsToTicks(ms);
 768              		.loc 3 129 0
 769 001a 7868     		ldr	r0, [r7, #4]
 770 001c FFF7FEFF 		bl	gfxMillisecondsToTicks
 771 0020 F860     		str	r0, [r7, #12]
 130:..\ugfx_2.6\src\gos/gos_x_threads.c **** 	starttm = gfxSystemTicks();
 772              		.loc 3 130 0
 773 0022 FFF7FEFF 		bl	gfxSystemTicks
 774 0026 B860     		str	r0, [r7, #8]
 775              	.L53:
 131:..\ugfx_2.6\src\gos/gos_x_threads.c **** 
 132:..\ugfx_2.6\src\gos/gos_x_threads.c **** 	do {
 133:..\ugfx_2.6\src\gos/gos_x_threads.c **** 		gfxYield();
 776              		.loc 3 133 0 discriminator 1
 777 0028 FFF7FEFF 		bl	gfxYield
 134:..\ugfx_2.6\src\gos/gos_x_threads.c **** 	} while (gfxSystemTicks() - starttm < delay);
 778              		.loc 3 134 0 discriminator 1
 779 002c FFF7FEFF 		bl	gfxSystemTicks
 780 0030 0246     		mov	r2, r0
 781 0032 BB68     		ldr	r3, [r7, #8]
 782 0034 D21A     		subs	r2, r2, r3
 783 0036 FB68     		ldr	r3, [r7, #12]
 784 0038 9A42     		cmp	r2, r3
 785 003a F5D3     		bcc	.L53
ARM GAS  C:\Users\joel\AppData\Local\Temp\cc53xt53.s 			page 22


 786 003c 00E0     		b	.L48
 787              	.L55:
 121:..\ugfx_2.6\src\gos/gos_x_threads.c **** 	case TIME_INFINITE:
 788              		.loc 3 121 0
 789 003e 00BF     		nop
 790              	.L48:
 135:..\ugfx_2.6\src\gos/gos_x_threads.c **** }
 791              		.loc 3 135 0
 792 0040 1037     		adds	r7, r7, #16
 793              		.cfi_def_cfa_offset 8
 794 0042 BD46     		mov	sp, r7
 795              		.cfi_def_cfa_register 13
 796              		@ sp needed
 797 0044 80BD     		pop	{r7, pc}
 798              		.cfi_endproc
 799              	.LFE16:
 800              		.size	gfxSleepMilliseconds, .-gfxSleepMilliseconds
 801 0046 00BF     		.section	.text.gfxSleepMicroseconds,"ax",%progbits
 802              		.align	2
 803              		.global	gfxSleepMicroseconds
 804              		.thumb
 805              		.thumb_func
 806              		.type	gfxSleepMicroseconds, %function
 807              	gfxSleepMicroseconds:
 808              	.LFB17:
 136:..\ugfx_2.6\src\gos/gos_x_threads.c **** 
 137:..\ugfx_2.6\src\gos/gos_x_threads.c **** void gfxSleepMicroseconds(delaytime_t ms) {
 809              		.loc 3 137 0
 810              		.cfi_startproc
 811              		@ args = 0, pretend = 0, frame = 16
 812              		@ frame_needed = 1, uses_anonymous_args = 0
 813 0000 80B5     		push	{r7, lr}
 814              		.cfi_def_cfa_offset 8
 815              		.cfi_offset 7, -8
 816              		.cfi_offset 14, -4
 817 0002 84B0     		sub	sp, sp, #16
 818              		.cfi_def_cfa_offset 24
 819 0004 00AF     		add	r7, sp, #0
 820              		.cfi_def_cfa_register 7
 821 0006 7860     		str	r0, [r7, #4]
 138:..\ugfx_2.6\src\gos/gos_x_threads.c **** 	systemticks_t	starttm, delay;
 139:..\ugfx_2.6\src\gos/gos_x_threads.c **** 
 140:..\ugfx_2.6\src\gos/gos_x_threads.c **** 	// Safety first
 141:..\ugfx_2.6\src\gos/gos_x_threads.c **** 	switch (ms) {
 822              		.loc 3 141 0
 823 0008 7B68     		ldr	r3, [r7, #4]
 824 000a 002B     		cmp	r3, #0
 825 000c 1CD0     		beq	.L63
 826 000e B3F1FF3F 		cmp	r3, #-1
 827 0012 02D1     		bne	.L62
 828              	.L59:
 142:..\ugfx_2.6\src\gos/gos_x_threads.c **** 	case TIME_IMMEDIATE:
 143:..\ugfx_2.6\src\gos/gos_x_threads.c **** 		return;
 144:..\ugfx_2.6\src\gos/gos_x_threads.c **** 	case TIME_INFINITE:
 145:..\ugfx_2.6\src\gos/gos_x_threads.c **** 		while(1)
 146:..\ugfx_2.6\src\gos/gos_x_threads.c **** 			gfxYield();
 829              		.loc 3 146 0 discriminator 1
ARM GAS  C:\Users\joel\AppData\Local\Temp\cc53xt53.s 			page 23


 830 0014 FFF7FEFF 		bl	gfxYield
 831 0018 FCE7     		b	.L59
 832              	.L62:
 147:..\ugfx_2.6\src\gos/gos_x_threads.c **** 		return;
 148:..\ugfx_2.6\src\gos/gos_x_threads.c **** 	}
 149:..\ugfx_2.6\src\gos/gos_x_threads.c **** 
 150:..\ugfx_2.6\src\gos/gos_x_threads.c **** 	// Convert our delay to ticks
 151:..\ugfx_2.6\src\gos/gos_x_threads.c **** 	delay = gfxMillisecondsToTicks(ms/1000);
 833              		.loc 3 151 0
 834 001a 7B68     		ldr	r3, [r7, #4]
 835 001c 0C4A     		ldr	r2, .L64
 836 001e A2FB0323 		umull	r2, r3, r2, r3
 837 0022 9B09     		lsrs	r3, r3, #6
 838 0024 1846     		mov	r0, r3
 839 0026 FFF7FEFF 		bl	gfxMillisecondsToTicks
 840 002a F860     		str	r0, [r7, #12]
 152:..\ugfx_2.6\src\gos/gos_x_threads.c **** 	starttm = gfxSystemTicks();
 841              		.loc 3 152 0
 842 002c FFF7FEFF 		bl	gfxSystemTicks
 843 0030 B860     		str	r0, [r7, #8]
 844              	.L61:
 153:..\ugfx_2.6\src\gos/gos_x_threads.c **** 
 154:..\ugfx_2.6\src\gos/gos_x_threads.c **** 	do {
 155:..\ugfx_2.6\src\gos/gos_x_threads.c **** 		gfxYield();
 845              		.loc 3 155 0 discriminator 1
 846 0032 FFF7FEFF 		bl	gfxYield
 156:..\ugfx_2.6\src\gos/gos_x_threads.c **** 	} while (gfxSystemTicks() - starttm < delay);
 847              		.loc 3 156 0 discriminator 1
 848 0036 FFF7FEFF 		bl	gfxSystemTicks
 849 003a 0246     		mov	r2, r0
 850 003c BB68     		ldr	r3, [r7, #8]
 851 003e D21A     		subs	r2, r2, r3
 852 0040 FB68     		ldr	r3, [r7, #12]
 853 0042 9A42     		cmp	r2, r3
 854 0044 F5D3     		bcc	.L61
 855 0046 00E0     		b	.L56
 856              	.L63:
 143:..\ugfx_2.6\src\gos/gos_x_threads.c **** 	case TIME_INFINITE:
 857              		.loc 3 143 0
 858 0048 00BF     		nop
 859              	.L56:
 157:..\ugfx_2.6\src\gos/gos_x_threads.c **** }
 860              		.loc 3 157 0
 861 004a 1037     		adds	r7, r7, #16
 862              		.cfi_def_cfa_offset 8
 863 004c BD46     		mov	sp, r7
 864              		.cfi_def_cfa_register 13
 865              		@ sp needed
 866 004e 80BD     		pop	{r7, pc}
 867              	.L65:
 868              		.align	2
 869              	.L64:
 870 0050 D34D6210 		.word	274877907
 871              		.cfi_endproc
 872              	.LFE17:
 873              		.size	gfxSleepMicroseconds, .-gfxSleepMicroseconds
 874              		.bss
ARM GAS  C:\Users\joel\AppData\Local\Temp\cc53xt53.s 			page 24


 875 0001 000000   		.align	2
 876              	readyQ:
 877 0004 00000000 		.space	8
 877      00000000 
 878              		.align	2
 879              	deadQ:
 880 000c 00000000 		.space	8
 880      00000000 
 881              		.align	2
 882              	current:
 883 0014 00000000 		.space	4
 884              		.align	2
 885              	mainthread:
 886 0018 00000000 		.space	24
 886      00000000 
 886      00000000 
 886      00000000 
 886      00000000 
 887              		.section	.text._gfxTaskSwitch,"ax",%progbits
 888              		.align	2
 889              		.thumb
 890              		.thumb_func
 891              		.type	_gfxTaskSwitch, %function
 892              	_gfxTaskSwitch:
 893              	.LFB18:
 158:..\ugfx_2.6\src\gos/gos_x_threads.c **** 
 159:..\ugfx_2.6\src\gos/gos_x_threads.c **** /*********************************************************
 160:..\ugfx_2.6\src\gos/gos_x_threads.c ****  * Threading functions
 161:..\ugfx_2.6\src\gos/gos_x_threads.c ****  *********************************************************/
 162:..\ugfx_2.6\src\gos/gos_x_threads.c **** 
 163:..\ugfx_2.6\src\gos/gos_x_threads.c **** /** For each scheduler the following need to be defined...
 164:..\ugfx_2.6\src\gos/gos_x_threads.c ****  *
 165:..\ugfx_2.6\src\gos/gos_x_threads.c ****  * void _gfxThreadsInit(void);								- Initialise the scheduler
 166:..\ugfx_2.6\src\gos/gos_x_threads.c ****  * void _gfxStartThread(thread *oldt, thread *newt);		- Start a new thread
 167:..\ugfx_2.6\src\gos/gos_x_threads.c ****  * void _gfxTaskSwitch(thread *oldt, thread *newt);			- Switch to a different thread
 168:..\ugfx_2.6\src\gos/gos_x_threads.c ****  *
 169:..\ugfx_2.6\src\gos/gos_x_threads.c ****  */
 170:..\ugfx_2.6\src\gos/gos_x_threads.c **** 
 171:..\ugfx_2.6\src\gos/gos_x_threads.c **** typedef struct thread {
 172:..\ugfx_2.6\src\gos/gos_x_threads.c **** 	struct thread *	next;					// Next thread
 173:..\ugfx_2.6\src\gos/gos_x_threads.c **** 	int				flags;					// Flags
 174:..\ugfx_2.6\src\gos/gos_x_threads.c **** 		#define FLG_THD_ALLOC	0x0001
 175:..\ugfx_2.6\src\gos/gos_x_threads.c **** 		#define FLG_THD_MAIN	0x0002
 176:..\ugfx_2.6\src\gos/gos_x_threads.c **** 		#define FLG_THD_DEAD	0x0004
 177:..\ugfx_2.6\src\gos/gos_x_threads.c **** 		#define FLG_THD_WAIT	0x0008
 178:..\ugfx_2.6\src\gos/gos_x_threads.c **** 	size_t			size;					// Size of the thread stack (including this structure)
 179:..\ugfx_2.6\src\gos/gos_x_threads.c **** 	threadreturn_t	(*fn)(void *param);		// Thread function
 180:..\ugfx_2.6\src\gos/gos_x_threads.c **** 	void *			param;					// Parameter for the thread function
 181:..\ugfx_2.6\src\gos/gos_x_threads.c **** 	void *			cxt;					// The current thread context.
 182:..\ugfx_2.6\src\gos/gos_x_threads.c **** 	} thread;
 183:..\ugfx_2.6\src\gos/gos_x_threads.c **** 
 184:..\ugfx_2.6\src\gos/gos_x_threads.c **** typedef struct threadQ {
 185:..\ugfx_2.6\src\gos/gos_x_threads.c **** 	thread *head;
 186:..\ugfx_2.6\src\gos/gos_x_threads.c **** 	thread *tail;
 187:..\ugfx_2.6\src\gos/gos_x_threads.c **** } threadQ;
 188:..\ugfx_2.6\src\gos/gos_x_threads.c **** 
 189:..\ugfx_2.6\src\gos/gos_x_threads.c **** static threadQ		readyQ;					// The list of ready threads
ARM GAS  C:\Users\joel\AppData\Local\Temp\cc53xt53.s 			page 25


 190:..\ugfx_2.6\src\gos/gos_x_threads.c **** static threadQ		deadQ;					// Where we put threads waiting to be deallocated
 191:..\ugfx_2.6\src\gos/gos_x_threads.c **** static thread *		current;				// The current running thread
 192:..\ugfx_2.6\src\gos/gos_x_threads.c **** static thread		mainthread;				// The main thread context
 193:..\ugfx_2.6\src\gos/gos_x_threads.c **** 
 194:..\ugfx_2.6\src\gos/gos_x_threads.c **** #if GFX_CPU == GFX_CPU_CORTEX_M0 || GFX_CPU == GFX_CPU_CORTEX_M1
 195:..\ugfx_2.6\src\gos/gos_x_threads.c **** 
 196:..\ugfx_2.6\src\gos/gos_x_threads.c **** 	// Use the EABI calling standard (ARM's AAPCS) - Save r4 - r11
 197:..\ugfx_2.6\src\gos/gos_x_threads.c **** 	// The context is saved at the current stack location and a pointer is maintained in the thread st
 198:..\ugfx_2.6\src\gos/gos_x_threads.c **** 
 199:..\ugfx_2.6\src\gos/gos_x_threads.c **** 	#define _gfxThreadsInit()
 200:..\ugfx_2.6\src\gos/gos_x_threads.c **** 
 201:..\ugfx_2.6\src\gos/gos_x_threads.c **** 	static __attribute__((pcs("aapcs"),naked)) void _gfxTaskSwitch(thread *oldt, thread *newt) {
 202:..\ugfx_2.6\src\gos/gos_x_threads.c **** 		__asm__ volatile (	"push    {r4, r5, r6, r7, lr}                   \n\t"
 203:..\ugfx_2.6\src\gos/gos_x_threads.c **** 							"mov     r4, r8                                 \n\t"
 204:..\ugfx_2.6\src\gos/gos_x_threads.c **** 							"mov     r5, r9                                 \n\t"
 205:..\ugfx_2.6\src\gos/gos_x_threads.c **** 							"mov     r6, r10                                \n\t"
 206:..\ugfx_2.6\src\gos/gos_x_threads.c **** 							"mov     r7, r11                                \n\t"
 207:..\ugfx_2.6\src\gos/gos_x_threads.c **** 							"push    {r4, r5, r6, r7}						\n\t"
 208:..\ugfx_2.6\src\gos/gos_x_threads.c **** 							"str	sp, %[oldtcxt]							\n\t"
 209:..\ugfx_2.6\src\gos/gos_x_threads.c **** 							"ldr	sp, %[newtcxt]							\n\t"
 210:..\ugfx_2.6\src\gos/gos_x_threads.c **** 							"pop     {r4, r5, r6, r7}                   	\n\t"
 211:..\ugfx_2.6\src\gos/gos_x_threads.c **** 							"mov     r8, r4                                 \n\t"
 212:..\ugfx_2.6\src\gos/gos_x_threads.c **** 							"mov     r9, r5                                 \n\t"
 213:..\ugfx_2.6\src\gos/gos_x_threads.c **** 							"mov     r10, r6                                \n\t"
 214:..\ugfx_2.6\src\gos/gos_x_threads.c **** 							"mov     r11, r7                                \n\t"
 215:..\ugfx_2.6\src\gos/gos_x_threads.c **** 							"pop     {r4, r5, r6, r7, pc}					\n\t"
 216:..\ugfx_2.6\src\gos/gos_x_threads.c **** 							: [newtcxt] "=m" (newt->cxt)
 217:..\ugfx_2.6\src\gos/gos_x_threads.c **** 							: [oldtcxt] "m" (oldt->cxt)
 218:..\ugfx_2.6\src\gos/gos_x_threads.c **** 							: "memory");
 219:..\ugfx_2.6\src\gos/gos_x_threads.c **** 	}
 220:..\ugfx_2.6\src\gos/gos_x_threads.c **** 
 221:..\ugfx_2.6\src\gos/gos_x_threads.c **** 	static __attribute__((pcs("aapcs"),naked)) void _gfxStartThread(thread *oldt, thread *newt) {
 222:..\ugfx_2.6\src\gos/gos_x_threads.c **** 		newt->cxt = (char *)newt + newt->size;
 223:..\ugfx_2.6\src\gos/gos_x_threads.c **** 		__asm__ volatile (	"push	{r4, r5, r6, r7, r8, r9, r10, r11, lr}	\n\t"		// save current context
 224:..\ugfx_2.6\src\gos/gos_x_threads.c **** 							"str	sp, %[oldtcxt]							\n\t"		// save context pointer
 225:..\ugfx_2.6\src\gos/gos_x_threads.c **** 							"ldr	sp, %[newtcxt]							\n\t"		// load new context pointer
 226:..\ugfx_2.6\src\gos/gos_x_threads.c **** 							: [newtcxt] "=m" (newt->cxt)
 227:..\ugfx_2.6\src\gos/gos_x_threads.c **** 							: [oldtcxt] "m" (oldt->cxt)
 228:..\ugfx_2.6\src\gos/gos_x_threads.c **** 							: "memory");
 229:..\ugfx_2.6\src\gos/gos_x_threads.c **** 
 230:..\ugfx_2.6\src\gos/gos_x_threads.c **** 		// Run the users function
 231:..\ugfx_2.6\src\gos/gos_x_threads.c **** 		gfxThreadExit(current->fn(current->param));
 232:..\ugfx_2.6\src\gos/gos_x_threads.c **** 	}
 233:..\ugfx_2.6\src\gos/gos_x_threads.c **** 
 234:..\ugfx_2.6\src\gos/gos_x_threads.c **** #elif GFX_CPU == GFX_CPU_CORTEX_M3 || GFX_CPU == GFX_CPU_CORTEX_M4 || GFX_CPU == GFX_CPU_CORTEX_M7
 235:..\ugfx_2.6\src\gos/gos_x_threads.c **** 
 236:..\ugfx_2.6\src\gos/gos_x_threads.c **** 	// Use the EABI calling standard (ARM's AAPCS) - Save r4 - r11
 237:..\ugfx_2.6\src\gos/gos_x_threads.c **** 	// The context is saved at the current stack location and a pointer is maintained in the thread st
 238:..\ugfx_2.6\src\gos/gos_x_threads.c **** 
 239:..\ugfx_2.6\src\gos/gos_x_threads.c **** 	#if CORTEX_USE_FPU
 240:..\ugfx_2.6\src\gos/gos_x_threads.c **** 		#warning "GOS Threads: You have specified GFX_CPU=GFX_CPU_CORTX_M? with no hardware floating poin
 241:..\ugfx_2.6\src\gos/gos_x_threads.c **** 	#endif
 242:..\ugfx_2.6\src\gos/gos_x_threads.c **** 
 243:..\ugfx_2.6\src\gos/gos_x_threads.c **** 	#define _gfxThreadsInit()
 244:..\ugfx_2.6\src\gos/gos_x_threads.c **** 
 245:..\ugfx_2.6\src\gos/gos_x_threads.c **** 	static __attribute__((pcs("aapcs"),naked)) void _gfxTaskSwitch(thread *oldt, thread *newt) {
 894              		.loc 3 245 0
ARM GAS  C:\Users\joel\AppData\Local\Temp\cc53xt53.s 			page 26


 895              		.cfi_startproc
 896              		@ Naked Function: prologue and epilogue provided by programmer.
 897              		@ args = 0, pretend = 0, frame = 0
 898              		@ frame_needed = 1, uses_anonymous_args = 0
 899 0000 0246     		mov	r2, r0
 900 0002 0B46     		mov	r3, r1
 246:..\ugfx_2.6\src\gos/gos_x_threads.c **** 		__asm__ volatile (	"push	{r4, r5, r6, r7, r8, r9, r10, r11, lr}	\n\t"
 901              		.loc 3 246 0
 902              	@ 246 "..\ugfx_2.6\src\gos/gos_x_threads.c" 1
 903 0004 2DE9F04F 		push	{r4, r5, r6, r7, r8, r9, r10, r11, lr}	
 904 0008 C2F814D0 		str	sp, [r2, #20]							
 905 000c D3F814D0 		ldr	sp, [r3, #20]							
 906 0010 BDE8F08F 		pop	{r4, r5, r6, r7, r8, r9, r10, r11, pc}	
 907              		
 908              	@ 0 "" 2
 247:..\ugfx_2.6\src\gos/gos_x_threads.c **** 							"str	sp, %[oldtcxt]							\n\t"
 248:..\ugfx_2.6\src\gos/gos_x_threads.c **** 							"ldr	sp, %[newtcxt]							\n\t"
 249:..\ugfx_2.6\src\gos/gos_x_threads.c **** 							"pop	{r4, r5, r6, r7, r8, r9, r10, r11, pc}	\n\t"
 250:..\ugfx_2.6\src\gos/gos_x_threads.c **** 							: [newtcxt] "=m" (newt->cxt)
 251:..\ugfx_2.6\src\gos/gos_x_threads.c **** 							: [oldtcxt] "m" (oldt->cxt)
 252:..\ugfx_2.6\src\gos/gos_x_threads.c **** 							: "memory");
 253:..\ugfx_2.6\src\gos/gos_x_threads.c **** 	}
 909              		.loc 3 253 0
 910              		.thumb
 911              		.cfi_endproc
 912              	.LFE18:
 913              		.size	_gfxTaskSwitch, .-_gfxTaskSwitch
 914              		.section	.text._gfxStartThread,"ax",%progbits
 915              		.align	2
 916              		.thumb
 917              		.thumb_func
 918              		.type	_gfxStartThread, %function
 919              	_gfxStartThread:
 920              	.LFB19:
 254:..\ugfx_2.6\src\gos/gos_x_threads.c **** 
 255:..\ugfx_2.6\src\gos/gos_x_threads.c **** 	static __attribute__((pcs("aapcs"),naked)) void _gfxStartThread(thread *oldt, thread *newt) {
 921              		.loc 3 255 0
 922              		.cfi_startproc
 923              		@ Naked Function: prologue and epilogue provided by programmer.
 924              		@ args = 0, pretend = 0, frame = 0
 925              		@ frame_needed = 1, uses_anonymous_args = 0
 926 0000 0B46     		mov	r3, r1
 256:..\ugfx_2.6\src\gos/gos_x_threads.c **** 		newt->cxt = (char *)newt + newt->size;
 927              		.loc 3 256 0
 928 0002 9A68     		ldr	r2, [r3, #8]
 929 0004 1A44     		add	r2, r2, r3
 930 0006 5A61     		str	r2, [r3, #20]
 257:..\ugfx_2.6\src\gos/gos_x_threads.c **** 		__asm__ volatile (	"push	{r4, r5, r6, r7, r8, r9, r10, r11, lr}	\n\t"
 931              		.loc 3 257 0
 932              	@ 257 "..\ugfx_2.6\src\gos/gos_x_threads.c" 1
 933 0008 2DE9F04F 		push	{r4, r5, r6, r7, r8, r9, r10, r11, lr}	
 934 000c C0F814D0 		str	sp, [r0, #20]							
 935 0010 D3F814D0 		ldr	sp, [r3, #20]							
 936              		
 937              	@ 0 "" 2
 258:..\ugfx_2.6\src\gos/gos_x_threads.c **** 							"str	sp, %[oldtcxt]							\n\t"
 259:..\ugfx_2.6\src\gos/gos_x_threads.c **** 							"ldr	sp, %[newtcxt]							\n\t"
ARM GAS  C:\Users\joel\AppData\Local\Temp\cc53xt53.s 			page 27


 260:..\ugfx_2.6\src\gos/gos_x_threads.c **** 							: [newtcxt] "=m" (newt->cxt)
 261:..\ugfx_2.6\src\gos/gos_x_threads.c **** 							: [oldtcxt] "m" (oldt->cxt)
 262:..\ugfx_2.6\src\gos/gos_x_threads.c **** 							: "memory");
 263:..\ugfx_2.6\src\gos/gos_x_threads.c **** 
 264:..\ugfx_2.6\src\gos/gos_x_threads.c **** 		// Run the users function
 265:..\ugfx_2.6\src\gos/gos_x_threads.c **** 		gfxThreadExit(current->fn(current->param));
 938              		.loc 3 265 0
 939              		.thumb
 940 0014 054B     		ldr	r3, .L68
 941 0016 1B68     		ldr	r3, [r3]
 942 0018 DB68     		ldr	r3, [r3, #12]
 943 001a 044A     		ldr	r2, .L68
 944 001c 1268     		ldr	r2, [r2]
 945 001e 1269     		ldr	r2, [r2, #16]
 946 0020 1046     		mov	r0, r2
 947 0022 9847     		blx	r3
 948 0024 0346     		mov	r3, r0
 949 0026 1846     		mov	r0, r3
 950 0028 FFF7FEFF 		bl	gfxThreadExit
 266:..\ugfx_2.6\src\gos/gos_x_threads.c **** 	}
 951              		.loc 3 266 0
 952              	.L69:
 953              		.align	2
 954              	.L68:
 955 002c 14000000 		.word	current
 956              		.cfi_endproc
 957              	.LFE19:
 958              		.size	_gfxStartThread, .-_gfxStartThread
 959              		.section	.text.Qinit,"ax",%progbits
 960              		.align	2
 961              		.thumb
 962              		.thumb_func
 963              		.type	Qinit, %function
 964              	Qinit:
 965              	.LFB20:
 267:..\ugfx_2.6\src\gos/gos_x_threads.c **** 
 268:..\ugfx_2.6\src\gos/gos_x_threads.c **** #elif GFX_CPU == GFX_CPU_CORTEX_M4_FP || GFX_CPU == GFX_CPU_CORTEX_M7_FP
 269:..\ugfx_2.6\src\gos/gos_x_threads.c **** 
 270:..\ugfx_2.6\src\gos/gos_x_threads.c **** 	// Use the EABI calling standard (ARM's AAPCS) - Save r4 - r11 and floating point
 271:..\ugfx_2.6\src\gos/gos_x_threads.c **** 	// The context is saved at the current stack location and a pointer is maintained in the thread st
 272:..\ugfx_2.6\src\gos/gos_x_threads.c **** 
 273:..\ugfx_2.6\src\gos/gos_x_threads.c **** 	#if !CORTEX_USE_FPU
 274:..\ugfx_2.6\src\gos/gos_x_threads.c **** 		#warning "GOS Threads: You have specified GFX_CPU=GFX_CPU_CORTX_M?_FP with hardware floating poin
 275:..\ugfx_2.6\src\gos/gos_x_threads.c **** 	#endif
 276:..\ugfx_2.6\src\gos/gos_x_threads.c **** 
 277:..\ugfx_2.6\src\gos/gos_x_threads.c **** 	#define _gfxThreadsInit()
 278:..\ugfx_2.6\src\gos/gos_x_threads.c **** 
 279:..\ugfx_2.6\src\gos/gos_x_threads.c **** 	static __attribute__((pcs("aapcs-vfp"),naked)) void _gfxTaskSwitch(thread *oldt, thread *newt) {
 280:..\ugfx_2.6\src\gos/gos_x_threads.c **** 		__asm__ volatile (	"push	{r4, r5, r6, r7, r8, r9, r10, r11, lr}	\n\t"
 281:..\ugfx_2.6\src\gos/gos_x_threads.c **** 							"vpush	{s16-s31}								\n\t"
 282:..\ugfx_2.6\src\gos/gos_x_threads.c **** 							"str	sp, %[oldtcxt]							\n\t"
 283:..\ugfx_2.6\src\gos/gos_x_threads.c **** 							"ldr	sp, %[newtcxt]							\n\t"
 284:..\ugfx_2.6\src\gos/gos_x_threads.c **** 							"vpop	{s16-s31}								\n\t"
 285:..\ugfx_2.6\src\gos/gos_x_threads.c **** 							"pop	{r4, r5, r6, r7, r8, r9, r10, r11, pc}	\n\t"
 286:..\ugfx_2.6\src\gos/gos_x_threads.c **** 							: [newtcxt] "=m" (newt->cxt)
 287:..\ugfx_2.6\src\gos/gos_x_threads.c **** 							: [oldtcxt] "m" (oldt->cxt)
 288:..\ugfx_2.6\src\gos/gos_x_threads.c **** 							: "memory");
ARM GAS  C:\Users\joel\AppData\Local\Temp\cc53xt53.s 			page 28


 289:..\ugfx_2.6\src\gos/gos_x_threads.c **** 	}
 290:..\ugfx_2.6\src\gos/gos_x_threads.c **** 
 291:..\ugfx_2.6\src\gos/gos_x_threads.c **** 	static __attribute__((pcs("aapcs-vfp"),naked)) void _gfxStartThread(thread *oldt, thread *newt) {
 292:..\ugfx_2.6\src\gos/gos_x_threads.c **** 		newt->cxt = (char *)newt + newt->size;
 293:..\ugfx_2.6\src\gos/gos_x_threads.c **** 		__asm__ volatile (	"push	{r4, r5, r6, r7, r8, r9, r10, r11, lr}	\n\t"
 294:..\ugfx_2.6\src\gos/gos_x_threads.c **** 							"vpush	{s16-s31}								\n\t"
 295:..\ugfx_2.6\src\gos/gos_x_threads.c **** 							"str	sp, %[oldtcxt]							\n\t"
 296:..\ugfx_2.6\src\gos/gos_x_threads.c **** 							"ldr	sp, %[newtcxt]							\n\t"
 297:..\ugfx_2.6\src\gos/gos_x_threads.c **** 							: [newtcxt] "=m" (newt->cxt)
 298:..\ugfx_2.6\src\gos/gos_x_threads.c **** 							: [oldtcxt] "m" (oldt->cxt)
 299:..\ugfx_2.6\src\gos/gos_x_threads.c **** 							: "memory");
 300:..\ugfx_2.6\src\gos/gos_x_threads.c **** 
 301:..\ugfx_2.6\src\gos/gos_x_threads.c **** 		// Run the users function
 302:..\ugfx_2.6\src\gos/gos_x_threads.c **** 		gfxThreadExit(current->fn(current->param));
 303:..\ugfx_2.6\src\gos/gos_x_threads.c **** 	}
 304:..\ugfx_2.6\src\gos/gos_x_threads.c **** 
 305:..\ugfx_2.6\src\gos/gos_x_threads.c **** #else
 306:..\ugfx_2.6\src\gos/gos_x_threads.c **** 	#include <string.h>				// Prototype for memcpy()
 307:..\ugfx_2.6\src\gos/gos_x_threads.c **** 	#include <setjmp.h>
 308:..\ugfx_2.6\src\gos/gos_x_threads.c **** 
 309:..\ugfx_2.6\src\gos/gos_x_threads.c **** 	/**
 310:..\ugfx_2.6\src\gos/gos_x_threads.c **** 	 * Some compilers define a _setjmp() and a setjmp().
 311:..\ugfx_2.6\src\gos/gos_x_threads.c **** 	 * The difference between them is that setjmp() saves the signal masks.
 312:..\ugfx_2.6\src\gos/gos_x_threads.c **** 	 * That is of no use to us so we prefer to use the _setjmp() methods.
 313:..\ugfx_2.6\src\gos/gos_x_threads.c **** 	 * If they don't exist compile them to be the standard setjmp() function.
 314:..\ugfx_2.6\src\gos/gos_x_threads.c **** 	 * Similarly for longjmp().
 315:..\ugfx_2.6\src\gos/gos_x_threads.c **** 	 */
 316:..\ugfx_2.6\src\gos/gos_x_threads.c **** 	#if (!defined(setjmp) && !defined(_setjmp)) || GFX_COMPILER == GFX_COMPILER_KEIL
 317:..\ugfx_2.6\src\gos/gos_x_threads.c **** 		#define CXT_SAVE 		setjmp
 318:..\ugfx_2.6\src\gos/gos_x_threads.c **** 	#else
 319:..\ugfx_2.6\src\gos/gos_x_threads.c **** 		#define CXT_SAVE 		_setjmp
 320:..\ugfx_2.6\src\gos/gos_x_threads.c **** 	#endif
 321:..\ugfx_2.6\src\gos/gos_x_threads.c **** 	#if (!defined(longjmp) && !defined(_longjmp)) || GFX_COMPILER == GFX_COMPILER_KEIL
 322:..\ugfx_2.6\src\gos/gos_x_threads.c **** 		#define CXT_RESTORE 	longjmp
 323:..\ugfx_2.6\src\gos/gos_x_threads.c **** 	#else
 324:..\ugfx_2.6\src\gos/gos_x_threads.c **** 		#define CXT_RESTORE 	_longjmp
 325:..\ugfx_2.6\src\gos/gos_x_threads.c **** 	#endif
 326:..\ugfx_2.6\src\gos/gos_x_threads.c **** 
 327:..\ugfx_2.6\src\gos/gos_x_threads.c **** 	// A place to store the main thread context.
 328:..\ugfx_2.6\src\gos/gos_x_threads.c **** 	// All other threads will store the context directly after the thread structure (as part of the st
 329:..\ugfx_2.6\src\gos/gos_x_threads.c **** 	static jmp_buf				maincxt;
 330:..\ugfx_2.6\src\gos/gos_x_threads.c **** 
 331:..\ugfx_2.6\src\gos/gos_x_threads.c **** 	/**
 332:..\ugfx_2.6\src\gos/gos_x_threads.c **** 	 * There are some compilers we know how they store the jmpbuf. For those
 333:..\ugfx_2.6\src\gos/gos_x_threads.c **** 	 * we can use the constant macro definitions. For others we have to "auto-detect".
 334:..\ugfx_2.6\src\gos/gos_x_threads.c **** 	 * Auto-detection is hairy and there is no guarantee it will work on all architectures.
 335:..\ugfx_2.6\src\gos/gos_x_threads.c **** 	 * For those it doesn't - read the compiler manuals and the library source code to
 336:..\ugfx_2.6\src\gos/gos_x_threads.c **** 	 * work out the correct macro values.
 337:..\ugfx_2.6\src\gos/gos_x_threads.c **** 	 * You can use the debugger to work out the values for your compiler and put them here.
 338:..\ugfx_2.6\src\gos/gos_x_threads.c **** 	 * Defining these macros as constant values makes the system behaviour guaranteed but also
 339:..\ugfx_2.6\src\gos/gos_x_threads.c **** 	 * makes your code compiler and cpu architecture dependent. It also saves a heap of code
 340:..\ugfx_2.6\src\gos/gos_x_threads.c **** 	 * and a few bytes of RAM.
 341:..\ugfx_2.6\src\gos/gos_x_threads.c **** 	 *
 342:..\ugfx_2.6\src\gos/gos_x_threads.c **** 	 * MACROS:
 343:..\ugfx_2.6\src\gos/gos_x_threads.c **** 	 *
 344:..\ugfx_2.6\src\gos/gos_x_threads.c **** 	 *	AUTO_DETECT_STACKFRAME	TRUE/FALSE			- TRUE to auto-detect stack frame structure
 345:..\ugfx_2.6\src\gos/gos_x_threads.c **** 	 *	STACK_DIR_UP			Macro/bool_t		- TRUE if the stack grows up instead of down
ARM GAS  C:\Users\joel\AppData\Local\Temp\cc53xt53.s 			page 29


 346:..\ugfx_2.6\src\gos/gos_x_threads.c **** 	 *	MASK1					Macro/uint32_t		- The 1st mask of jmp_buf elements that need relocation
 347:..\ugfx_2.6\src\gos/gos_x_threads.c **** 	 *	MASK2					Macro/uint32_t		- The 2nd mask of jmp_buf elements that need relocation
 348:..\ugfx_2.6\src\gos/gos_x_threads.c **** 	 *	STACK_BASE				Macro/size_t		- The base of the stack frame relative to the local variables
 349:..\ugfx_2.6\src\gos/gos_x_threads.c **** 	 *	_gfxThreadsInit()		Macro/Function		- Initialise the scheduler
 350:..\ugfx_2.6\src\gos/gos_x_threads.c **** 	 *
 351:..\ugfx_2.6\src\gos/gos_x_threads.c **** 	 */
 352:..\ugfx_2.6\src\gos/gos_x_threads.c **** 	#if GFX_COMPILER == GFX_COMPILER_MINGW32
 353:..\ugfx_2.6\src\gos/gos_x_threads.c **** 
 354:..\ugfx_2.6\src\gos/gos_x_threads.c **** 		#define AUTO_DETECT_STACKFRAME	FALSE
 355:..\ugfx_2.6\src\gos/gos_x_threads.c **** 		#define STACK_DIR_UP		FALSE
 356:..\ugfx_2.6\src\gos/gos_x_threads.c **** 		#define MASK1				0x00000011
 357:..\ugfx_2.6\src\gos/gos_x_threads.c **** 		#define MASK2				0x00000000
 358:..\ugfx_2.6\src\gos/gos_x_threads.c **** 		#define STACK_BASE			12
 359:..\ugfx_2.6\src\gos/gos_x_threads.c **** 		#define _gfxThreadsInit()	mainthread.cxt = maincxt
 360:..\ugfx_2.6\src\gos/gos_x_threads.c **** 
 361:..\ugfx_2.6\src\gos/gos_x_threads.c **** 	#else
 362:..\ugfx_2.6\src\gos/gos_x_threads.c **** 
 363:..\ugfx_2.6\src\gos/gos_x_threads.c **** 		// Use auto-detection of the stack frame format
 364:..\ugfx_2.6\src\gos/gos_x_threads.c **** 		// Assumes all the relevant stuff to be relocated is in the first 256 bytes of the jmpbuf.
 365:..\ugfx_2.6\src\gos/gos_x_threads.c **** 		#define AUTO_DETECT_STACKFRAME	TRUE
 366:..\ugfx_2.6\src\gos/gos_x_threads.c **** 		#define STACK_DIR_UP		stackdirup			// TRUE if the stack grow up instead of down
 367:..\ugfx_2.6\src\gos/gos_x_threads.c **** 		#define MASK1				jmpmask1			// The 1st mask of jmp_buf elements that need relocation
 368:..\ugfx_2.6\src\gos/gos_x_threads.c **** 		#define MASK2				jmpmask2			// The 2nd mask of jmp_buf elements that need relocation
 369:..\ugfx_2.6\src\gos/gos_x_threads.c **** 		#define STACK_BASE			stackbase			// The base of the stack frame relative to the local variables
 370:..\ugfx_2.6\src\gos/gos_x_threads.c **** 
 371:..\ugfx_2.6\src\gos/gos_x_threads.c **** 		// The structure for the saved stack frame information
 372:..\ugfx_2.6\src\gos/gos_x_threads.c **** 		typedef struct saveloc {
 373:..\ugfx_2.6\src\gos/gos_x_threads.c **** 			char *		localptr;
 374:..\ugfx_2.6\src\gos/gos_x_threads.c **** 			jmp_buf		cxt;
 375:..\ugfx_2.6\src\gos/gos_x_threads.c **** 		} saveloc;
 376:..\ugfx_2.6\src\gos/gos_x_threads.c **** 
 377:..\ugfx_2.6\src\gos/gos_x_threads.c **** 		static bool_t		stackdirup;
 378:..\ugfx_2.6\src\gos/gos_x_threads.c **** 		static uint32_t		jmpmask1;
 379:..\ugfx_2.6\src\gos/gos_x_threads.c **** 		static uint32_t		jmpmask2;
 380:..\ugfx_2.6\src\gos/gos_x_threads.c **** 		static size_t		stackbase;
 381:..\ugfx_2.6\src\gos/gos_x_threads.c **** 		static saveloc		*pframeinfo;
 382:..\ugfx_2.6\src\gos/gos_x_threads.c **** 
 383:..\ugfx_2.6\src\gos/gos_x_threads.c **** 		// These two functions are not static to prevent the compiler removing them as functions
 384:..\ugfx_2.6\src\gos/gos_x_threads.c **** 		void _gfxGetStackState(void) {
 385:..\ugfx_2.6\src\gos/gos_x_threads.c **** 			char *c;
 386:..\ugfx_2.6\src\gos/gos_x_threads.c **** 			pframeinfo->localptr = (char *)&c;
 387:..\ugfx_2.6\src\gos/gos_x_threads.c **** 			CXT_SAVE(pframeinfo->cxt);
 388:..\ugfx_2.6\src\gos/gos_x_threads.c **** 		}
 389:..\ugfx_2.6\src\gos/gos_x_threads.c **** 		void _gfxGetStackStateInFn(void) {
 390:..\ugfx_2.6\src\gos/gos_x_threads.c **** 			pframeinfo++;
 391:..\ugfx_2.6\src\gos/gos_x_threads.c **** 			_gfxGetStackState();
 392:..\ugfx_2.6\src\gos/gos_x_threads.c **** 			pframeinfo--;
 393:..\ugfx_2.6\src\gos/gos_x_threads.c **** 		}
 394:..\ugfx_2.6\src\gos/gos_x_threads.c **** 		static void _gfxThreadsInit(void) {
 395:..\ugfx_2.6\src\gos/gos_x_threads.c **** 			uint32_t	i;
 396:..\ugfx_2.6\src\gos/gos_x_threads.c **** 			char **		pout;
 397:..\ugfx_2.6\src\gos/gos_x_threads.c **** 			char **		pin;
 398:..\ugfx_2.6\src\gos/gos_x_threads.c **** 			size_t		diff;
 399:..\ugfx_2.6\src\gos/gos_x_threads.c **** 			char *		framebase;
 400:..\ugfx_2.6\src\gos/gos_x_threads.c **** 			saveloc		tmpsaveloc[2];
 401:..\ugfx_2.6\src\gos/gos_x_threads.c **** 
 402:..\ugfx_2.6\src\gos/gos_x_threads.c **** 			// Create the main thread context
ARM GAS  C:\Users\joel\AppData\Local\Temp\cc53xt53.s 			page 30


 403:..\ugfx_2.6\src\gos/gos_x_threads.c **** 			mainthread.cxt = maincxt;
 404:..\ugfx_2.6\src\gos/gos_x_threads.c **** 
 405:..\ugfx_2.6\src\gos/gos_x_threads.c **** 			// Allocate a buffer to store our test data
 406:..\ugfx_2.6\src\gos/gos_x_threads.c **** 			pframeinfo = tmpsaveloc;
 407:..\ugfx_2.6\src\gos/gos_x_threads.c **** 
 408:..\ugfx_2.6\src\gos/gos_x_threads.c **** 			// Get details of the stack frame from within a function
 409:..\ugfx_2.6\src\gos/gos_x_threads.c **** 			_gfxGetStackStateInFn();
 410:..\ugfx_2.6\src\gos/gos_x_threads.c **** 
 411:..\ugfx_2.6\src\gos/gos_x_threads.c **** 			// Get details of the stack frame outside the function
 412:..\ugfx_2.6\src\gos/gos_x_threads.c **** 			_gfxGetStackState();
 413:..\ugfx_2.6\src\gos/gos_x_threads.c **** 
 414:..\ugfx_2.6\src\gos/gos_x_threads.c **** 			/* Work out the frame entries to relocate by treating the jump buffer as an array of pointers */
 415:..\ugfx_2.6\src\gos/gos_x_threads.c **** 			stackdirup =  pframeinfo[1].localptr > pframeinfo[0].localptr;
 416:..\ugfx_2.6\src\gos/gos_x_threads.c **** 			pout = (char **)pframeinfo[0].cxt;
 417:..\ugfx_2.6\src\gos/gos_x_threads.c **** 			pin =  (char **)pframeinfo[1].cxt;
 418:..\ugfx_2.6\src\gos/gos_x_threads.c **** 			diff = pframeinfo[0].localptr - pframeinfo[1].localptr;
 419:..\ugfx_2.6\src\gos/gos_x_threads.c **** 			framebase = pframeinfo[0].localptr;
 420:..\ugfx_2.6\src\gos/gos_x_threads.c **** 			jmpmask1 = jmpmask2 = 0;
 421:..\ugfx_2.6\src\gos/gos_x_threads.c **** 			for (i = 0; i < sizeof(jmp_buf)/sizeof(char *); i++, pout++, pin++) {
 422:..\ugfx_2.6\src\gos/gos_x_threads.c **** 				if ((size_t)(*pout - *pin) == diff) {
 423:..\ugfx_2.6\src\gos/gos_x_threads.c **** 					if (i < 32)
 424:..\ugfx_2.6\src\gos/gos_x_threads.c **** 						jmpmask1 |= 1 << i;
 425:..\ugfx_2.6\src\gos/gos_x_threads.c **** 					else
 426:..\ugfx_2.6\src\gos/gos_x_threads.c **** 						jmpmask2 |= 1 << (i-32);
 427:..\ugfx_2.6\src\gos/gos_x_threads.c **** 
 428:..\ugfx_2.6\src\gos/gos_x_threads.c **** 					if (stackdirup) {
 429:..\ugfx_2.6\src\gos/gos_x_threads.c **** 						if (framebase > *pout)
 430:..\ugfx_2.6\src\gos/gos_x_threads.c **** 							framebase = *pout;
 431:..\ugfx_2.6\src\gos/gos_x_threads.c **** 					} else {
 432:..\ugfx_2.6\src\gos/gos_x_threads.c **** 						if (framebase < *pout)
 433:..\ugfx_2.6\src\gos/gos_x_threads.c **** 							framebase = *pout;
 434:..\ugfx_2.6\src\gos/gos_x_threads.c **** 					}
 435:..\ugfx_2.6\src\gos/gos_x_threads.c **** 				}
 436:..\ugfx_2.6\src\gos/gos_x_threads.c **** 			}
 437:..\ugfx_2.6\src\gos/gos_x_threads.c **** 			stackbase = stackdirup ? (pframeinfo[0].localptr - framebase) : (framebase - pframeinfo[0].local
 438:..\ugfx_2.6\src\gos/gos_x_threads.c **** 		}
 439:..\ugfx_2.6\src\gos/gos_x_threads.c **** 
 440:..\ugfx_2.6\src\gos/gos_x_threads.c **** 	#endif
 441:..\ugfx_2.6\src\gos/gos_x_threads.c **** 
 442:..\ugfx_2.6\src\gos/gos_x_threads.c **** 	// Move the stack frame and relocate the context data
 443:..\ugfx_2.6\src\gos/gos_x_threads.c **** 	static void _gfxAdjustCxt(thread *t) {
 444:..\ugfx_2.6\src\gos/gos_x_threads.c **** 		char **	s;
 445:..\ugfx_2.6\src\gos/gos_x_threads.c **** 		char *	nf;
 446:..\ugfx_2.6\src\gos/gos_x_threads.c **** 		int		diff;
 447:..\ugfx_2.6\src\gos/gos_x_threads.c **** 		uint32_t	i;
 448:..\ugfx_2.6\src\gos/gos_x_threads.c **** 
 449:..\ugfx_2.6\src\gos/gos_x_threads.c **** 		// Copy the stack frame
 450:..\ugfx_2.6\src\gos/gos_x_threads.c **** 		#if AUTO_DETECT_STACKFRAME
 451:..\ugfx_2.6\src\gos/gos_x_threads.c **** 			if (STACK_DIR_UP) {					// Stack grows up
 452:..\ugfx_2.6\src\gos/gos_x_threads.c **** 				nf = (char *)(t) + sizeof(thread) + sizeof(jmp_buf) + STACK_BASE;
 453:..\ugfx_2.6\src\gos/gos_x_threads.c **** 				memcpy(t+1, (char *)&s - STACK_BASE, STACK_BASE+sizeof(char *));
 454:..\ugfx_2.6\src\gos/gos_x_threads.c **** 			} else {							// Stack grows down
 455:..\ugfx_2.6\src\gos/gos_x_threads.c **** 				nf = (char *)(t) + t->size - (STACK_BASE + sizeof(char *));
 456:..\ugfx_2.6\src\gos/gos_x_threads.c **** 				memcpy(nf, &s, STACK_BASE+sizeof(char *));
 457:..\ugfx_2.6\src\gos/gos_x_threads.c **** 			}
 458:..\ugfx_2.6\src\gos/gos_x_threads.c **** 		#elif STACK_DIR_UP
 459:..\ugfx_2.6\src\gos/gos_x_threads.c **** 			// Stack grows up
ARM GAS  C:\Users\joel\AppData\Local\Temp\cc53xt53.s 			page 31


 460:..\ugfx_2.6\src\gos/gos_x_threads.c **** 			nf = (char *)(t) + sizeof(thread) + sizeof(jmp_buf) + STACK_BASE;
 461:..\ugfx_2.6\src\gos/gos_x_threads.c **** 			memcpy(t+1, (char *)&s - STACK_BASE, STACK_BASE+sizeof(char *));
 462:..\ugfx_2.6\src\gos/gos_x_threads.c **** 		#else
 463:..\ugfx_2.6\src\gos/gos_x_threads.c **** 			// Stack grows down
 464:..\ugfx_2.6\src\gos/gos_x_threads.c **** 			nf = (char *)(t) + t->size - (STACK_BASE + sizeof(char *));
 465:..\ugfx_2.6\src\gos/gos_x_threads.c **** 			memcpy(nf, &s, STACK_BASE+sizeof(char *));
 466:..\ugfx_2.6\src\gos/gos_x_threads.c **** 		#endif
 467:..\ugfx_2.6\src\gos/gos_x_threads.c **** 
 468:..\ugfx_2.6\src\gos/gos_x_threads.c **** 		// Relocate the context data
 469:..\ugfx_2.6\src\gos/gos_x_threads.c **** 		s = (char **)(t->cxt);
 470:..\ugfx_2.6\src\gos/gos_x_threads.c **** 		diff = nf - (char *)&s;
 471:..\ugfx_2.6\src\gos/gos_x_threads.c **** 
 472:..\ugfx_2.6\src\gos/gos_x_threads.c **** 		// Relocate the elements we know need to be relocated
 473:..\ugfx_2.6\src\gos/gos_x_threads.c **** 		for (i = MASK1; i ; i >>= 1, s++) {
 474:..\ugfx_2.6\src\gos/gos_x_threads.c **** 			if ((i & 1))
 475:..\ugfx_2.6\src\gos/gos_x_threads.c **** 				*s += diff;
 476:..\ugfx_2.6\src\gos/gos_x_threads.c **** 		}
 477:..\ugfx_2.6\src\gos/gos_x_threads.c **** 		#ifdef MASK2
 478:..\ugfx_2.6\src\gos/gos_x_threads.c **** 			s = (char **)(t->cxt)+32;
 479:..\ugfx_2.6\src\gos/gos_x_threads.c **** 			for (i = MASK2; i ; i >>= 1, s++) {
 480:..\ugfx_2.6\src\gos/gos_x_threads.c **** 				if ((i & 1))
 481:..\ugfx_2.6\src\gos/gos_x_threads.c **** 					*s += diff;
 482:..\ugfx_2.6\src\gos/gos_x_threads.c **** 			}
 483:..\ugfx_2.6\src\gos/gos_x_threads.c **** 		#endif
 484:..\ugfx_2.6\src\gos/gos_x_threads.c **** 	}
 485:..\ugfx_2.6\src\gos/gos_x_threads.c **** 	static void _gfxXSwitch(thread *oldt, thread *newt, bool_t doBuildFrame) {
 486:..\ugfx_2.6\src\gos/gos_x_threads.c **** 
 487:..\ugfx_2.6\src\gos/gos_x_threads.c **** 		// Save the old context
 488:..\ugfx_2.6\src\gos/gos_x_threads.c **** 		if (CXT_SAVE(oldt->cxt)) return;
 489:..\ugfx_2.6\src\gos/gos_x_threads.c **** 
 490:..\ugfx_2.6\src\gos/gos_x_threads.c **** 		// Do we need to build a new context?
 491:..\ugfx_2.6\src\gos/gos_x_threads.c **** 		if (doBuildFrame) {
 492:..\ugfx_2.6\src\gos/gos_x_threads.c **** 
 493:..\ugfx_2.6\src\gos/gos_x_threads.c **** 			// Save our existing context as a starting point for the new context
 494:..\ugfx_2.6\src\gos/gos_x_threads.c **** 			newt->cxt = newt+1;
 495:..\ugfx_2.6\src\gos/gos_x_threads.c **** 			if (CXT_SAVE(newt->cxt)) {
 496:..\ugfx_2.6\src\gos/gos_x_threads.c **** 
 497:..\ugfx_2.6\src\gos/gos_x_threads.c **** 				// We are now running the new thread
 498:..\ugfx_2.6\src\gos/gos_x_threads.c **** 
 499:..\ugfx_2.6\src\gos/gos_x_threads.c **** 				// We can't use any of the above function parameters here
 500:..\ugfx_2.6\src\gos/gos_x_threads.c **** 				//	as we are on a different stack.
 501:..\ugfx_2.6\src\gos/gos_x_threads.c **** 
 502:..\ugfx_2.6\src\gos/gos_x_threads.c **** 				// Run the users function.
 503:..\ugfx_2.6\src\gos/gos_x_threads.c **** 				gfxThreadExit(current->fn(current->param));
 504:..\ugfx_2.6\src\gos/gos_x_threads.c **** 
 505:..\ugfx_2.6\src\gos/gos_x_threads.c **** 				// We never get here as gfxThreadExit() never returns
 506:..\ugfx_2.6\src\gos/gos_x_threads.c **** 			}
 507:..\ugfx_2.6\src\gos/gos_x_threads.c **** 
 508:..\ugfx_2.6\src\gos/gos_x_threads.c **** 			// Adjust the new context so the stack references are correct
 509:..\ugfx_2.6\src\gos/gos_x_threads.c **** 			_gfxAdjustCxt(newt);
 510:..\ugfx_2.6\src\gos/gos_x_threads.c **** 		}
 511:..\ugfx_2.6\src\gos/gos_x_threads.c **** 
 512:..\ugfx_2.6\src\gos/gos_x_threads.c **** 		// Start the new context
 513:..\ugfx_2.6\src\gos/gos_x_threads.c **** 		CXT_RESTORE(newt->cxt, 1);
 514:..\ugfx_2.6\src\gos/gos_x_threads.c **** 	}
 515:..\ugfx_2.6\src\gos/gos_x_threads.c **** 
 516:..\ugfx_2.6\src\gos/gos_x_threads.c **** 	#define _gfxTaskSwitch(oldt, newt)		_gfxXSwitch(oldt, newt, FALSE)
ARM GAS  C:\Users\joel\AppData\Local\Temp\cc53xt53.s 			page 32


 517:..\ugfx_2.6\src\gos/gos_x_threads.c **** 	#define _gfxStartThread(oldt, newt)		_gfxXSwitch(oldt, newt, TRUE)
 518:..\ugfx_2.6\src\gos/gos_x_threads.c **** #endif
 519:..\ugfx_2.6\src\gos/gos_x_threads.c **** 
 520:..\ugfx_2.6\src\gos/gos_x_threads.c **** static void Qinit(threadQ * q) {
 966              		.loc 3 520 0
 967              		.cfi_startproc
 968              		@ args = 0, pretend = 0, frame = 8
 969              		@ frame_needed = 1, uses_anonymous_args = 0
 970              		@ link register save eliminated.
 971 0000 80B4     		push	{r7}
 972              		.cfi_def_cfa_offset 4
 973              		.cfi_offset 7, -4
 974 0002 83B0     		sub	sp, sp, #12
 975              		.cfi_def_cfa_offset 16
 976 0004 00AF     		add	r7, sp, #0
 977              		.cfi_def_cfa_register 7
 978 0006 7860     		str	r0, [r7, #4]
 521:..\ugfx_2.6\src\gos/gos_x_threads.c **** 	q->head = q->tail = 0;
 979              		.loc 3 521 0
 980 0008 7B68     		ldr	r3, [r7, #4]
 981 000a 0022     		movs	r2, #0
 982 000c 5A60     		str	r2, [r3, #4]
 983 000e 7B68     		ldr	r3, [r7, #4]
 984 0010 5A68     		ldr	r2, [r3, #4]
 985 0012 7B68     		ldr	r3, [r7, #4]
 986 0014 1A60     		str	r2, [r3]
 522:..\ugfx_2.6\src\gos/gos_x_threads.c **** }
 987              		.loc 3 522 0
 988 0016 0C37     		adds	r7, r7, #12
 989              		.cfi_def_cfa_offset 4
 990 0018 BD46     		mov	sp, r7
 991              		.cfi_def_cfa_register 13
 992              		@ sp needed
 993 001a 5DF8047B 		ldr	r7, [sp], #4
 994              		.cfi_restore 7
 995              		.cfi_def_cfa_offset 0
 996 001e 7047     		bx	lr
 997              		.cfi_endproc
 998              	.LFE20:
 999              		.size	Qinit, .-Qinit
 1000              		.section	.text.Qadd,"ax",%progbits
 1001              		.align	2
 1002              		.thumb
 1003              		.thumb_func
 1004              		.type	Qadd, %function
 1005              	Qadd:
 1006              	.LFB21:
 523:..\ugfx_2.6\src\gos/gos_x_threads.c **** 
 524:..\ugfx_2.6\src\gos/gos_x_threads.c **** static void Qadd(threadQ * q, thread *t) {
 1007              		.loc 3 524 0
 1008              		.cfi_startproc
 1009              		@ args = 0, pretend = 0, frame = 8
 1010              		@ frame_needed = 1, uses_anonymous_args = 0
 1011              		@ link register save eliminated.
 1012 0000 80B4     		push	{r7}
 1013              		.cfi_def_cfa_offset 4
 1014              		.cfi_offset 7, -4
ARM GAS  C:\Users\joel\AppData\Local\Temp\cc53xt53.s 			page 33


 1015 0002 83B0     		sub	sp, sp, #12
 1016              		.cfi_def_cfa_offset 16
 1017 0004 00AF     		add	r7, sp, #0
 1018              		.cfi_def_cfa_register 7
 1019 0006 7860     		str	r0, [r7, #4]
 1020 0008 3960     		str	r1, [r7]
 525:..\ugfx_2.6\src\gos/gos_x_threads.c **** 	t->next = 0;
 1021              		.loc 3 525 0
 1022 000a 3B68     		ldr	r3, [r7]
 1023 000c 0022     		movs	r2, #0
 1024 000e 1A60     		str	r2, [r3]
 526:..\ugfx_2.6\src\gos/gos_x_threads.c **** 	if (q->head) {
 1025              		.loc 3 526 0
 1026 0010 7B68     		ldr	r3, [r7, #4]
 1027 0012 1B68     		ldr	r3, [r3]
 1028 0014 002B     		cmp	r3, #0
 1029 0016 07D0     		beq	.L72
 527:..\ugfx_2.6\src\gos/gos_x_threads.c **** 		q->tail->next = t;
 1030              		.loc 3 527 0
 1031 0018 7B68     		ldr	r3, [r7, #4]
 1032 001a 5B68     		ldr	r3, [r3, #4]
 1033 001c 3A68     		ldr	r2, [r7]
 1034 001e 1A60     		str	r2, [r3]
 528:..\ugfx_2.6\src\gos/gos_x_threads.c **** 		q->tail = t;
 1035              		.loc 3 528 0
 1036 0020 7B68     		ldr	r3, [r7, #4]
 1037 0022 3A68     		ldr	r2, [r7]
 1038 0024 5A60     		str	r2, [r3, #4]
 1039 0026 06E0     		b	.L71
 1040              	.L72:
 529:..\ugfx_2.6\src\gos/gos_x_threads.c **** 	} else
 530:..\ugfx_2.6\src\gos/gos_x_threads.c **** 		q->head = q->tail = t;
 1041              		.loc 3 530 0
 1042 0028 7B68     		ldr	r3, [r7, #4]
 1043 002a 3A68     		ldr	r2, [r7]
 1044 002c 5A60     		str	r2, [r3, #4]
 1045 002e 7B68     		ldr	r3, [r7, #4]
 1046 0030 5A68     		ldr	r2, [r3, #4]
 1047 0032 7B68     		ldr	r3, [r7, #4]
 1048 0034 1A60     		str	r2, [r3]
 1049              	.L71:
 531:..\ugfx_2.6\src\gos/gos_x_threads.c **** }
 1050              		.loc 3 531 0
 1051 0036 0C37     		adds	r7, r7, #12
 1052              		.cfi_def_cfa_offset 4
 1053 0038 BD46     		mov	sp, r7
 1054              		.cfi_def_cfa_register 13
 1055              		@ sp needed
 1056 003a 5DF8047B 		ldr	r7, [sp], #4
 1057              		.cfi_restore 7
 1058              		.cfi_def_cfa_offset 0
 1059 003e 7047     		bx	lr
 1060              		.cfi_endproc
 1061              	.LFE21:
 1062              		.size	Qadd, .-Qadd
 1063              		.section	.text.Qpop,"ax",%progbits
 1064              		.align	2
ARM GAS  C:\Users\joel\AppData\Local\Temp\cc53xt53.s 			page 34


 1065              		.thumb
 1066              		.thumb_func
 1067              		.type	Qpop, %function
 1068              	Qpop:
 1069              	.LFB22:
 532:..\ugfx_2.6\src\gos/gos_x_threads.c **** 
 533:..\ugfx_2.6\src\gos/gos_x_threads.c **** static thread *Qpop(threadQ * q) {
 1070              		.loc 3 533 0
 1071              		.cfi_startproc
 1072              		@ args = 0, pretend = 0, frame = 16
 1073              		@ frame_needed = 1, uses_anonymous_args = 0
 1074              		@ link register save eliminated.
 1075 0000 80B4     		push	{r7}
 1076              		.cfi_def_cfa_offset 4
 1077              		.cfi_offset 7, -4
 1078 0002 85B0     		sub	sp, sp, #20
 1079              		.cfi_def_cfa_offset 24
 1080 0004 00AF     		add	r7, sp, #0
 1081              		.cfi_def_cfa_register 7
 1082 0006 7860     		str	r0, [r7, #4]
 534:..\ugfx_2.6\src\gos/gos_x_threads.c **** 	struct thread * t;
 535:..\ugfx_2.6\src\gos/gos_x_threads.c **** 
 536:..\ugfx_2.6\src\gos/gos_x_threads.c **** 	if (!q->head)
 1083              		.loc 3 536 0
 1084 0008 7B68     		ldr	r3, [r7, #4]
 1085 000a 1B68     		ldr	r3, [r3]
 1086 000c 002B     		cmp	r3, #0
 1087 000e 01D1     		bne	.L75
 537:..\ugfx_2.6\src\gos/gos_x_threads.c **** 		return 0;
 1088              		.loc 3 537 0
 1089 0010 0023     		movs	r3, #0
 1090 0012 07E0     		b	.L76
 1091              	.L75:
 538:..\ugfx_2.6\src\gos/gos_x_threads.c **** 	t = q->head;
 1092              		.loc 3 538 0
 1093 0014 7B68     		ldr	r3, [r7, #4]
 1094 0016 1B68     		ldr	r3, [r3]
 1095 0018 FB60     		str	r3, [r7, #12]
 539:..\ugfx_2.6\src\gos/gos_x_threads.c **** 	q->head = t->next;
 1096              		.loc 3 539 0
 1097 001a FB68     		ldr	r3, [r7, #12]
 1098 001c 1A68     		ldr	r2, [r3]
 1099 001e 7B68     		ldr	r3, [r7, #4]
 1100 0020 1A60     		str	r2, [r3]
 540:..\ugfx_2.6\src\gos/gos_x_threads.c **** 	return t;
 1101              		.loc 3 540 0
 1102 0022 FB68     		ldr	r3, [r7, #12]
 1103              	.L76:
 541:..\ugfx_2.6\src\gos/gos_x_threads.c **** }
 1104              		.loc 3 541 0
 1105 0024 1846     		mov	r0, r3
 1106 0026 1437     		adds	r7, r7, #20
 1107              		.cfi_def_cfa_offset 4
 1108 0028 BD46     		mov	sp, r7
 1109              		.cfi_def_cfa_register 13
 1110              		@ sp needed
 1111 002a 5DF8047B 		ldr	r7, [sp], #4
ARM GAS  C:\Users\joel\AppData\Local\Temp\cc53xt53.s 			page 35


 1112              		.cfi_restore 7
 1113              		.cfi_def_cfa_offset 0
 1114 002e 7047     		bx	lr
 1115              		.cfi_endproc
 1116              	.LFE22:
 1117              		.size	Qpop, .-Qpop
 1118              		.section	.text._gosThreadsInit,"ax",%progbits
 1119              		.align	2
 1120              		.global	_gosThreadsInit
 1121              		.thumb
 1122              		.thumb_func
 1123              		.type	_gosThreadsInit, %function
 1124              	_gosThreadsInit:
 1125              	.LFB23:
 542:..\ugfx_2.6\src\gos/gos_x_threads.c **** 
 543:..\ugfx_2.6\src\gos/gos_x_threads.c **** void _gosThreadsInit(void) {
 1126              		.loc 3 543 0
 1127              		.cfi_startproc
 1128              		@ args = 0, pretend = 0, frame = 0
 1129              		@ frame_needed = 1, uses_anonymous_args = 0
 1130 0000 80B5     		push	{r7, lr}
 1131              		.cfi_def_cfa_offset 8
 1132              		.cfi_offset 7, -8
 1133              		.cfi_offset 14, -4
 1134 0002 00AF     		add	r7, sp, #0
 1135              		.cfi_def_cfa_register 7
 544:..\ugfx_2.6\src\gos/gos_x_threads.c **** 	Qinit(&readyQ);
 1136              		.loc 3 544 0
 1137 0004 0A48     		ldr	r0, .L78
 1138 0006 FFF7FEFF 		bl	Qinit
 545:..\ugfx_2.6\src\gos/gos_x_threads.c **** 
 546:..\ugfx_2.6\src\gos/gos_x_threads.c **** 	mainthread.next = 0;
 1139              		.loc 3 546 0
 1140 000a 0A4B     		ldr	r3, .L78+4
 1141 000c 0022     		movs	r2, #0
 1142 000e 1A60     		str	r2, [r3]
 547:..\ugfx_2.6\src\gos/gos_x_threads.c **** 	mainthread.size = sizeof(thread);
 1143              		.loc 3 547 0
 1144 0010 084B     		ldr	r3, .L78+4
 1145 0012 1822     		movs	r2, #24
 1146 0014 9A60     		str	r2, [r3, #8]
 548:..\ugfx_2.6\src\gos/gos_x_threads.c **** 	mainthread.flags = FLG_THD_MAIN;
 1147              		.loc 3 548 0
 1148 0016 074B     		ldr	r3, .L78+4
 1149 0018 0222     		movs	r2, #2
 1150 001a 5A60     		str	r2, [r3, #4]
 549:..\ugfx_2.6\src\gos/gos_x_threads.c **** 	mainthread.fn = 0;
 1151              		.loc 3 549 0
 1152 001c 054B     		ldr	r3, .L78+4
 1153 001e 0022     		movs	r2, #0
 1154 0020 DA60     		str	r2, [r3, #12]
 550:..\ugfx_2.6\src\gos/gos_x_threads.c **** 	mainthread.param = 0;
 1155              		.loc 3 550 0
 1156 0022 044B     		ldr	r3, .L78+4
 1157 0024 0022     		movs	r2, #0
 1158 0026 1A61     		str	r2, [r3, #16]
 551:..\ugfx_2.6\src\gos/gos_x_threads.c **** 
ARM GAS  C:\Users\joel\AppData\Local\Temp\cc53xt53.s 			page 36


 552:..\ugfx_2.6\src\gos/gos_x_threads.c **** 	_gfxThreadsInit();
 553:..\ugfx_2.6\src\gos/gos_x_threads.c **** 
 554:..\ugfx_2.6\src\gos/gos_x_threads.c **** 	current = &mainthread;
 1159              		.loc 3 554 0
 1160 0028 034B     		ldr	r3, .L78+8
 1161 002a 024A     		ldr	r2, .L78+4
 1162 002c 1A60     		str	r2, [r3]
 555:..\ugfx_2.6\src\gos/gos_x_threads.c **** }
 1163              		.loc 3 555 0
 1164 002e 80BD     		pop	{r7, pc}
 1165              	.L79:
 1166              		.align	2
 1167              	.L78:
 1168 0030 04000000 		.word	readyQ
 1169 0034 18000000 		.word	mainthread
 1170 0038 14000000 		.word	current
 1171              		.cfi_endproc
 1172              	.LFE23:
 1173              		.size	_gosThreadsInit, .-_gosThreadsInit
 1174              		.section	.text.gfxThreadMe,"ax",%progbits
 1175              		.align	2
 1176              		.global	gfxThreadMe
 1177              		.thumb
 1178              		.thumb_func
 1179              		.type	gfxThreadMe, %function
 1180              	gfxThreadMe:
 1181              	.LFB24:
 556:..\ugfx_2.6\src\gos/gos_x_threads.c **** 
 557:..\ugfx_2.6\src\gos/gos_x_threads.c **** gfxThreadHandle gfxThreadMe(void) {
 1182              		.loc 3 557 0
 1183              		.cfi_startproc
 1184              		@ args = 0, pretend = 0, frame = 0
 1185              		@ frame_needed = 1, uses_anonymous_args = 0
 1186              		@ link register save eliminated.
 1187 0000 80B4     		push	{r7}
 1188              		.cfi_def_cfa_offset 4
 1189              		.cfi_offset 7, -4
 1190 0002 00AF     		add	r7, sp, #0
 1191              		.cfi_def_cfa_register 7
 558:..\ugfx_2.6\src\gos/gos_x_threads.c **** 	return (gfxThreadHandle)current;
 1192              		.loc 3 558 0
 1193 0004 034B     		ldr	r3, .L82
 1194 0006 1B68     		ldr	r3, [r3]
 559:..\ugfx_2.6\src\gos/gos_x_threads.c **** }
 1195              		.loc 3 559 0
 1196 0008 1846     		mov	r0, r3
 1197 000a BD46     		mov	sp, r7
 1198              		.cfi_def_cfa_register 13
 1199              		@ sp needed
 1200 000c 5DF8047B 		ldr	r7, [sp], #4
 1201              		.cfi_restore 7
 1202              		.cfi_def_cfa_offset 0
 1203 0010 7047     		bx	lr
 1204              	.L83:
 1205 0012 00BF     		.align	2
 1206              	.L82:
 1207 0014 14000000 		.word	current
ARM GAS  C:\Users\joel\AppData\Local\Temp\cc53xt53.s 			page 37


 1208              		.cfi_endproc
 1209              	.LFE24:
 1210              		.size	gfxThreadMe, .-gfxThreadMe
 1211              		.section	.text.cleanUpDeadThreads,"ax",%progbits
 1212              		.align	2
 1213              		.thumb
 1214              		.thumb_func
 1215              		.type	cleanUpDeadThreads, %function
 1216              	cleanUpDeadThreads:
 1217              	.LFB25:
 560:..\ugfx_2.6\src\gos/gos_x_threads.c **** 
 561:..\ugfx_2.6\src\gos/gos_x_threads.c **** // Check if there are dead processes to deallocate
 562:..\ugfx_2.6\src\gos/gos_x_threads.c **** static void cleanUpDeadThreads(void) {
 1218              		.loc 3 562 0
 1219              		.cfi_startproc
 1220              		@ args = 0, pretend = 0, frame = 8
 1221              		@ frame_needed = 1, uses_anonymous_args = 0
 1222 0000 80B5     		push	{r7, lr}
 1223              		.cfi_def_cfa_offset 8
 1224              		.cfi_offset 7, -8
 1225              		.cfi_offset 14, -4
 1226 0002 82B0     		sub	sp, sp, #8
 1227              		.cfi_def_cfa_offset 16
 1228 0004 00AF     		add	r7, sp, #0
 1229              		.cfi_def_cfa_register 7
 563:..\ugfx_2.6\src\gos/gos_x_threads.c **** 	thread *p;
 564:..\ugfx_2.6\src\gos/gos_x_threads.c **** 
 565:..\ugfx_2.6\src\gos/gos_x_threads.c **** 	while ((p = Qpop(&deadQ)))
 1230              		.loc 3 565 0
 1231 0006 02E0     		b	.L85
 1232              	.L86:
 566:..\ugfx_2.6\src\gos/gos_x_threads.c **** 		gfxFree(p);
 1233              		.loc 3 566 0
 1234 0008 7868     		ldr	r0, [r7, #4]
 1235 000a FFF7FEFF 		bl	gfxFree
 1236              	.L85:
 565:..\ugfx_2.6\src\gos/gos_x_threads.c **** 		gfxFree(p);
 1237              		.loc 3 565 0
 1238 000e 0548     		ldr	r0, .L87
 1239 0010 FFF7FEFF 		bl	Qpop
 1240 0014 7860     		str	r0, [r7, #4]
 1241 0016 7B68     		ldr	r3, [r7, #4]
 1242 0018 002B     		cmp	r3, #0
 1243 001a F5D1     		bne	.L86
 567:..\ugfx_2.6\src\gos/gos_x_threads.c **** }
 1244              		.loc 3 567 0
 1245 001c 0837     		adds	r7, r7, #8
 1246              		.cfi_def_cfa_offset 8
 1247 001e BD46     		mov	sp, r7
 1248              		.cfi_def_cfa_register 13
 1249              		@ sp needed
 1250 0020 80BD     		pop	{r7, pc}
 1251              	.L88:
 1252 0022 00BF     		.align	2
 1253              	.L87:
 1254 0024 0C000000 		.word	deadQ
 1255              		.cfi_endproc
ARM GAS  C:\Users\joel\AppData\Local\Temp\cc53xt53.s 			page 38


 1256              	.LFE25:
 1257              		.size	cleanUpDeadThreads, .-cleanUpDeadThreads
 1258              		.section	.text.gfxYield,"ax",%progbits
 1259              		.align	2
 1260              		.global	gfxYield
 1261              		.thumb
 1262              		.thumb_func
 1263              		.type	gfxYield, %function
 1264              	gfxYield:
 1265              	.LFB26:
 568:..\ugfx_2.6\src\gos/gos_x_threads.c **** 
 569:..\ugfx_2.6\src\gos/gos_x_threads.c **** void gfxYield(void) {
 1266              		.loc 3 569 0
 1267              		.cfi_startproc
 1268              		@ args = 0, pretend = 0, frame = 8
 1269              		@ frame_needed = 1, uses_anonymous_args = 0
 1270 0000 80B5     		push	{r7, lr}
 1271              		.cfi_def_cfa_offset 8
 1272              		.cfi_offset 7, -8
 1273              		.cfi_offset 14, -4
 1274 0002 82B0     		sub	sp, sp, #8
 1275              		.cfi_def_cfa_offset 16
 1276 0004 00AF     		add	r7, sp, #0
 1277              		.cfi_def_cfa_register 7
 570:..\ugfx_2.6\src\gos/gos_x_threads.c **** 	thread	*me;
 571:..\ugfx_2.6\src\gos/gos_x_threads.c **** 
 572:..\ugfx_2.6\src\gos/gos_x_threads.c **** 	// Clean up zombies
 573:..\ugfx_2.6\src\gos/gos_x_threads.c **** 	cleanUpDeadThreads();
 1278              		.loc 3 573 0
 1279 0006 FFF7FEFF 		bl	cleanUpDeadThreads
 574:..\ugfx_2.6\src\gos/gos_x_threads.c **** 
 575:..\ugfx_2.6\src\gos/gos_x_threads.c **** 	// Is there another thread to run?
 576:..\ugfx_2.6\src\gos/gos_x_threads.c **** 	if (!readyQ.head)
 1280              		.loc 3 576 0
 1281 000a 0D4B     		ldr	r3, .L92
 1282 000c 1B68     		ldr	r3, [r3]
 1283 000e 002B     		cmp	r3, #0
 1284 0010 00D1     		bne	.L90
 577:..\ugfx_2.6\src\gos/gos_x_threads.c **** 		return;
 1285              		.loc 3 577 0
 1286 0012 12E0     		b	.L89
 1287              	.L90:
 578:..\ugfx_2.6\src\gos/gos_x_threads.c **** 
 579:..\ugfx_2.6\src\gos/gos_x_threads.c **** 	Qadd(&readyQ, me = current);
 1288              		.loc 3 579 0
 1289 0014 0B4B     		ldr	r3, .L92+4
 1290 0016 1B68     		ldr	r3, [r3]
 1291 0018 7B60     		str	r3, [r7, #4]
 1292 001a 0948     		ldr	r0, .L92
 1293 001c 7968     		ldr	r1, [r7, #4]
 1294 001e FFF7FEFF 		bl	Qadd
 580:..\ugfx_2.6\src\gos/gos_x_threads.c **** 	current = Qpop(&readyQ);
 1295              		.loc 3 580 0
 1296 0022 0748     		ldr	r0, .L92
 1297 0024 FFF7FEFF 		bl	Qpop
 1298 0028 0246     		mov	r2, r0
 1299 002a 064B     		ldr	r3, .L92+4
ARM GAS  C:\Users\joel\AppData\Local\Temp\cc53xt53.s 			page 39


 1300 002c 1A60     		str	r2, [r3]
 581:..\ugfx_2.6\src\gos/gos_x_threads.c **** 	_gfxTaskSwitch(me, current);
 1301              		.loc 3 581 0
 1302 002e 054B     		ldr	r3, .L92+4
 1303 0030 1B68     		ldr	r3, [r3]
 1304 0032 7868     		ldr	r0, [r7, #4]
 1305 0034 1946     		mov	r1, r3
 1306 0036 FFF7FEFF 		bl	_gfxTaskSwitch
 1307              	.L89:
 582:..\ugfx_2.6\src\gos/gos_x_threads.c **** }
 1308              		.loc 3 582 0
 1309 003a 0837     		adds	r7, r7, #8
 1310              		.cfi_def_cfa_offset 8
 1311 003c BD46     		mov	sp, r7
 1312              		.cfi_def_cfa_register 13
 1313              		@ sp needed
 1314 003e 80BD     		pop	{r7, pc}
 1315              	.L93:
 1316              		.align	2
 1317              	.L92:
 1318 0040 04000000 		.word	readyQ
 1319 0044 14000000 		.word	current
 1320              		.cfi_endproc
 1321              	.LFE26:
 1322              		.size	gfxYield, .-gfxYield
 1323              		.section	.text.gfxThreadExit,"ax",%progbits
 1324              		.align	2
 1325              		.global	gfxThreadExit
 1326              		.thumb
 1327              		.thumb_func
 1328              		.type	gfxThreadExit, %function
 1329              	gfxThreadExit:
 1330              	.LFB27:
 583:..\ugfx_2.6\src\gos/gos_x_threads.c **** 
 584:..\ugfx_2.6\src\gos/gos_x_threads.c **** // This routine is not currently public - but it could be.
 585:..\ugfx_2.6\src\gos/gos_x_threads.c **** void gfxThreadExit(threadreturn_t ret) {
 1331              		.loc 3 585 0
 1332              		.cfi_startproc
 1333              		@ args = 0, pretend = 0, frame = 16
 1334              		@ frame_needed = 1, uses_anonymous_args = 0
 1335 0000 80B5     		push	{r7, lr}
 1336              		.cfi_def_cfa_offset 8
 1337              		.cfi_offset 7, -8
 1338              		.cfi_offset 14, -4
 1339 0002 84B0     		sub	sp, sp, #16
 1340              		.cfi_def_cfa_offset 24
 1341 0004 00AF     		add	r7, sp, #0
 1342              		.cfi_def_cfa_register 7
 1343 0006 7860     		str	r0, [r7, #4]
 586:..\ugfx_2.6\src\gos/gos_x_threads.c **** 	thread	*me;
 587:..\ugfx_2.6\src\gos/gos_x_threads.c **** 
 588:..\ugfx_2.6\src\gos/gos_x_threads.c **** 	// Save the results in case someone is waiting
 589:..\ugfx_2.6\src\gos/gos_x_threads.c **** 	me = current;
 1344              		.loc 3 589 0
 1345 0008 154B     		ldr	r3, .L97
 1346 000a 1B68     		ldr	r3, [r3]
 1347 000c FB60     		str	r3, [r7, #12]
ARM GAS  C:\Users\joel\AppData\Local\Temp\cc53xt53.s 			page 40


 590:..\ugfx_2.6\src\gos/gos_x_threads.c **** 	me->param = (void *)ret;
 1348              		.loc 3 590 0
 1349 000e 7A68     		ldr	r2, [r7, #4]
 1350 0010 FB68     		ldr	r3, [r7, #12]
 1351 0012 1A61     		str	r2, [r3, #16]
 591:..\ugfx_2.6\src\gos/gos_x_threads.c **** 	me->flags |= FLG_THD_DEAD;
 1352              		.loc 3 591 0
 1353 0014 FB68     		ldr	r3, [r7, #12]
 1354 0016 5B68     		ldr	r3, [r3, #4]
 1355 0018 43F00402 		orr	r2, r3, #4
 1356 001c FB68     		ldr	r3, [r7, #12]
 1357 001e 5A60     		str	r2, [r3, #4]
 592:..\ugfx_2.6\src\gos/gos_x_threads.c **** 
 593:..\ugfx_2.6\src\gos/gos_x_threads.c **** 	// Add us to the dead list if we need deallocation as we can't free ourselves.
 594:..\ugfx_2.6\src\gos/gos_x_threads.c **** 	// If someone is waiting on the thread they will do the cleanup.
 595:..\ugfx_2.6\src\gos/gos_x_threads.c **** 	if ((me->flags & (FLG_THD_ALLOC|FLG_THD_WAIT)) == FLG_THD_ALLOC)
 1358              		.loc 3 595 0
 1359 0020 FB68     		ldr	r3, [r7, #12]
 1360 0022 5B68     		ldr	r3, [r3, #4]
 1361 0024 03F00903 		and	r3, r3, #9
 1362 0028 012B     		cmp	r3, #1
 1363 002a 03D1     		bne	.L95
 596:..\ugfx_2.6\src\gos/gos_x_threads.c **** 		Qadd(&deadQ, me);
 1364              		.loc 3 596 0
 1365 002c 0D48     		ldr	r0, .L97+4
 1366 002e F968     		ldr	r1, [r7, #12]
 1367 0030 FFF7FEFF 		bl	Qadd
 1368              	.L95:
 597:..\ugfx_2.6\src\gos/gos_x_threads.c **** 
 598:..\ugfx_2.6\src\gos/gos_x_threads.c **** 	// Set the next thread. Exit if it was the last thread
 599:..\ugfx_2.6\src\gos/gos_x_threads.c **** 	if (!(current = Qpop(&readyQ)))
 1369              		.loc 3 599 0
 1370 0034 0C48     		ldr	r0, .L97+8
 1371 0036 FFF7FEFF 		bl	Qpop
 1372 003a 0246     		mov	r2, r0
 1373 003c 084B     		ldr	r3, .L97
 1374 003e 1A60     		str	r2, [r3]
 1375 0040 074B     		ldr	r3, .L97
 1376 0042 1B68     		ldr	r3, [r3]
 1377 0044 002B     		cmp	r3, #0
 1378 0046 01D1     		bne	.L96
 600:..\ugfx_2.6\src\gos/gos_x_threads.c **** 		gfxExit();
 1379              		.loc 3 600 0
 1380 0048 FFF7FEFF 		bl	gfxExit
 1381              	.L96:
 601:..\ugfx_2.6\src\gos/gos_x_threads.c **** 
 602:..\ugfx_2.6\src\gos/gos_x_threads.c **** 	// Switch to the new thread
 603:..\ugfx_2.6\src\gos/gos_x_threads.c **** 	_gfxTaskSwitch(me, current);
 1382              		.loc 3 603 0
 1383 004c 044B     		ldr	r3, .L97
 1384 004e 1B68     		ldr	r3, [r3]
 1385 0050 F868     		ldr	r0, [r7, #12]
 1386 0052 1946     		mov	r1, r3
 1387 0054 FFF7FEFF 		bl	_gfxTaskSwitch
 604:..\ugfx_2.6\src\gos/gos_x_threads.c **** 
 605:..\ugfx_2.6\src\gos/gos_x_threads.c **** 	// We never get back here as we didn't re-queue ourselves
 606:..\ugfx_2.6\src\gos/gos_x_threads.c **** }
ARM GAS  C:\Users\joel\AppData\Local\Temp\cc53xt53.s 			page 41


 1388              		.loc 3 606 0
 1389 0058 1037     		adds	r7, r7, #16
 1390              		.cfi_def_cfa_offset 8
 1391 005a BD46     		mov	sp, r7
 1392              		.cfi_def_cfa_register 13
 1393              		@ sp needed
 1394 005c 80BD     		pop	{r7, pc}
 1395              	.L98:
 1396 005e 00BF     		.align	2
 1397              	.L97:
 1398 0060 14000000 		.word	current
 1399 0064 0C000000 		.word	deadQ
 1400 0068 04000000 		.word	readyQ
 1401              		.cfi_endproc
 1402              	.LFE27:
 1403              		.size	gfxThreadExit, .-gfxThreadExit
 1404              		.section	.text.gfxThreadCreate,"ax",%progbits
 1405              		.align	2
 1406              		.global	gfxThreadCreate
 1407              		.thumb
 1408              		.thumb_func
 1409              		.type	gfxThreadCreate, %function
 1410              	gfxThreadCreate:
 1411              	.LFB28:
 607:..\ugfx_2.6\src\gos/gos_x_threads.c **** 
 608:..\ugfx_2.6\src\gos/gos_x_threads.c **** gfxThreadHandle gfxThreadCreate(void *stackarea, size_t stacksz, threadpriority_t prio, DECLARE_THR
 1412              		.loc 3 608 0
 1413              		.cfi_startproc
 1414              		@ args = 4, pretend = 0, frame = 24
 1415              		@ frame_needed = 1, uses_anonymous_args = 0
 1416 0000 80B5     		push	{r7, lr}
 1417              		.cfi_def_cfa_offset 8
 1418              		.cfi_offset 7, -8
 1419              		.cfi_offset 14, -4
 1420 0002 86B0     		sub	sp, sp, #24
 1421              		.cfi_def_cfa_offset 32
 1422 0004 00AF     		add	r7, sp, #0
 1423              		.cfi_def_cfa_register 7
 1424 0006 F860     		str	r0, [r7, #12]
 1425 0008 B960     		str	r1, [r7, #8]
 1426 000a 7A60     		str	r2, [r7, #4]
 1427 000c 3B60     		str	r3, [r7]
 609:..\ugfx_2.6\src\gos/gos_x_threads.c **** 	thread *	t;
 610:..\ugfx_2.6\src\gos/gos_x_threads.c **** 	thread *	me;
 611:..\ugfx_2.6\src\gos/gos_x_threads.c **** 	(void)		prio;
 612:..\ugfx_2.6\src\gos/gos_x_threads.c **** 
 613:..\ugfx_2.6\src\gos/gos_x_threads.c **** 	// Ensure we have a minimum stack size
 614:..\ugfx_2.6\src\gos/gos_x_threads.c **** 	if (stacksz < sizeof(thread)+64) {
 1428              		.loc 3 614 0
 1429 000e BB68     		ldr	r3, [r7, #8]
 1430 0010 572B     		cmp	r3, #87
 1431 0012 03D8     		bhi	.L100
 615:..\ugfx_2.6\src\gos/gos_x_threads.c **** 		stacksz = sizeof(thread)+64;
 1432              		.loc 3 615 0
 1433 0014 5823     		movs	r3, #88
 1434 0016 BB60     		str	r3, [r7, #8]
 616:..\ugfx_2.6\src\gos/gos_x_threads.c **** 		stackarea = 0;
ARM GAS  C:\Users\joel\AppData\Local\Temp\cc53xt53.s 			page 42


 1435              		.loc 3 616 0
 1436 0018 0023     		movs	r3, #0
 1437 001a FB60     		str	r3, [r7, #12]
 1438              	.L100:
 617:..\ugfx_2.6\src\gos/gos_x_threads.c **** 	}
 618:..\ugfx_2.6\src\gos/gos_x_threads.c **** 
 619:..\ugfx_2.6\src\gos/gos_x_threads.c **** 	if (stackarea) {
 1439              		.loc 3 619 0
 1440 001c FB68     		ldr	r3, [r7, #12]
 1441 001e 002B     		cmp	r3, #0
 1442 0020 05D0     		beq	.L101
 620:..\ugfx_2.6\src\gos/gos_x_threads.c **** 		t = (thread *)stackarea;
 1443              		.loc 3 620 0
 1444 0022 FB68     		ldr	r3, [r7, #12]
 1445 0024 7B61     		str	r3, [r7, #20]
 621:..\ugfx_2.6\src\gos/gos_x_threads.c **** 		t->flags = 0;
 1446              		.loc 3 621 0
 1447 0026 7B69     		ldr	r3, [r7, #20]
 1448 0028 0022     		movs	r2, #0
 1449 002a 5A60     		str	r2, [r3, #4]
 1450 002c 0BE0     		b	.L102
 1451              	.L101:
 622:..\ugfx_2.6\src\gos/gos_x_threads.c **** 	} else {
 623:..\ugfx_2.6\src\gos/gos_x_threads.c **** 		t = (thread *)gfxAlloc(stacksz);
 1452              		.loc 3 623 0
 1453 002e B868     		ldr	r0, [r7, #8]
 1454 0030 FFF7FEFF 		bl	gfxAlloc
 1455 0034 7861     		str	r0, [r7, #20]
 624:..\ugfx_2.6\src\gos/gos_x_threads.c **** 		if (!t)
 1456              		.loc 3 624 0
 1457 0036 7B69     		ldr	r3, [r7, #20]
 1458 0038 002B     		cmp	r3, #0
 1459 003a 01D1     		bne	.L103
 625:..\ugfx_2.6\src\gos/gos_x_threads.c **** 			return 0;
 1460              		.loc 3 625 0
 1461 003c 0023     		movs	r3, #0
 1462 003e 1AE0     		b	.L104
 1463              	.L103:
 626:..\ugfx_2.6\src\gos/gos_x_threads.c **** 		t->flags = FLG_THD_ALLOC;
 1464              		.loc 3 626 0
 1465 0040 7B69     		ldr	r3, [r7, #20]
 1466 0042 0122     		movs	r2, #1
 1467 0044 5A60     		str	r2, [r3, #4]
 1468              	.L102:
 627:..\ugfx_2.6\src\gos/gos_x_threads.c **** 	}
 628:..\ugfx_2.6\src\gos/gos_x_threads.c **** 	t->size = stacksz;
 1469              		.loc 3 628 0
 1470 0046 7B69     		ldr	r3, [r7, #20]
 1471 0048 BA68     		ldr	r2, [r7, #8]
 1472 004a 9A60     		str	r2, [r3, #8]
 629:..\ugfx_2.6\src\gos/gos_x_threads.c **** 	t->fn = fn;
 1473              		.loc 3 629 0
 1474 004c 7B69     		ldr	r3, [r7, #20]
 1475 004e 3A68     		ldr	r2, [r7]
 1476 0050 DA60     		str	r2, [r3, #12]
 630:..\ugfx_2.6\src\gos/gos_x_threads.c **** 	t->param = param;
 1477              		.loc 3 630 0
ARM GAS  C:\Users\joel\AppData\Local\Temp\cc53xt53.s 			page 43


 1478 0052 7B69     		ldr	r3, [r7, #20]
 1479 0054 3A6A     		ldr	r2, [r7, #32]
 1480 0056 1A61     		str	r2, [r3, #16]
 631:..\ugfx_2.6\src\gos/gos_x_threads.c **** 
 632:..\ugfx_2.6\src\gos/gos_x_threads.c **** 	// Add the current thread to the queue because we are starting a new thread.
 633:..\ugfx_2.6\src\gos/gos_x_threads.c **** 	me = current;
 1481              		.loc 3 633 0
 1482 0058 094B     		ldr	r3, .L105
 1483 005a 1B68     		ldr	r3, [r3]
 1484 005c 3B61     		str	r3, [r7, #16]
 634:..\ugfx_2.6\src\gos/gos_x_threads.c **** 	Qadd(&readyQ, me);
 1485              		.loc 3 634 0
 1486 005e 0948     		ldr	r0, .L105+4
 1487 0060 3969     		ldr	r1, [r7, #16]
 1488 0062 FFF7FEFF 		bl	Qadd
 635:..\ugfx_2.6\src\gos/gos_x_threads.c **** 	current = t;
 1489              		.loc 3 635 0
 1490 0066 064A     		ldr	r2, .L105
 1491 0068 7B69     		ldr	r3, [r7, #20]
 1492 006a 1360     		str	r3, [r2]
 636:..\ugfx_2.6\src\gos/gos_x_threads.c **** 
 637:..\ugfx_2.6\src\gos/gos_x_threads.c **** 	_gfxStartThread(me, t);
 1493              		.loc 3 637 0
 1494 006c 3869     		ldr	r0, [r7, #16]
 1495 006e 7969     		ldr	r1, [r7, #20]
 1496 0070 FFF7FEFF 		bl	_gfxStartThread
 638:..\ugfx_2.6\src\gos/gos_x_threads.c **** 
 639:..\ugfx_2.6\src\gos/gos_x_threads.c **** 	// Return the new thread handle
 640:..\ugfx_2.6\src\gos/gos_x_threads.c **** 	return t;
 1497              		.loc 3 640 0
 1498 0074 7B69     		ldr	r3, [r7, #20]
 1499              	.L104:
 641:..\ugfx_2.6\src\gos/gos_x_threads.c **** }
 1500              		.loc 3 641 0
 1501 0076 1846     		mov	r0, r3
 1502 0078 1837     		adds	r7, r7, #24
 1503              		.cfi_def_cfa_offset 8
 1504 007a BD46     		mov	sp, r7
 1505              		.cfi_def_cfa_register 13
 1506              		@ sp needed
 1507 007c 80BD     		pop	{r7, pc}
 1508              	.L106:
 1509 007e 00BF     		.align	2
 1510              	.L105:
 1511 0080 14000000 		.word	current
 1512 0084 04000000 		.word	readyQ
 1513              		.cfi_endproc
 1514              	.LFE28:
 1515              		.size	gfxThreadCreate, .-gfxThreadCreate
 1516              		.section	.text.gfxThreadWait,"ax",%progbits
 1517              		.align	2
 1518              		.global	gfxThreadWait
 1519              		.thumb
 1520              		.thumb_func
 1521              		.type	gfxThreadWait, %function
 1522              	gfxThreadWait:
 1523              	.LFB29:
ARM GAS  C:\Users\joel\AppData\Local\Temp\cc53xt53.s 			page 44


 642:..\ugfx_2.6\src\gos/gos_x_threads.c **** 
 643:..\ugfx_2.6\src\gos/gos_x_threads.c **** threadreturn_t gfxThreadWait(gfxThreadHandle th) {
 1524              		.loc 3 643 0
 1525              		.cfi_startproc
 1526              		@ args = 0, pretend = 0, frame = 16
 1527              		@ frame_needed = 1, uses_anonymous_args = 0
 1528 0000 80B5     		push	{r7, lr}
 1529              		.cfi_def_cfa_offset 8
 1530              		.cfi_offset 7, -8
 1531              		.cfi_offset 14, -4
 1532 0002 84B0     		sub	sp, sp, #16
 1533              		.cfi_def_cfa_offset 24
 1534 0004 00AF     		add	r7, sp, #0
 1535              		.cfi_def_cfa_register 7
 1536 0006 7860     		str	r0, [r7, #4]
 644:..\ugfx_2.6\src\gos/gos_x_threads.c **** 	thread *		t;
 645:..\ugfx_2.6\src\gos/gos_x_threads.c **** 
 646:..\ugfx_2.6\src\gos/gos_x_threads.c **** 	t = th;
 1537              		.loc 3 646 0
 1538 0008 7B68     		ldr	r3, [r7, #4]
 1539 000a FB60     		str	r3, [r7, #12]
 647:..\ugfx_2.6\src\gos/gos_x_threads.c **** 	if (t == current)
 1540              		.loc 3 647 0
 1541 000c 154B     		ldr	r3, .L113
 1542 000e 1B68     		ldr	r3, [r3]
 1543 0010 FA68     		ldr	r2, [r7, #12]
 1544 0012 9A42     		cmp	r2, r3
 1545 0014 02D1     		bne	.L108
 648:..\ugfx_2.6\src\gos/gos_x_threads.c **** 		return -1;
 1546              		.loc 3 648 0
 1547 0016 4FF0FF33 		mov	r3, #-1
 1548 001a 1FE0     		b	.L109
 1549              	.L108:
 649:..\ugfx_2.6\src\gos/gos_x_threads.c **** 
 650:..\ugfx_2.6\src\gos/gos_x_threads.c **** 	// Mark that we are waiting
 651:..\ugfx_2.6\src\gos/gos_x_threads.c **** 	t->flags |= FLG_THD_WAIT;
 1550              		.loc 3 651 0
 1551 001c FB68     		ldr	r3, [r7, #12]
 1552 001e 5B68     		ldr	r3, [r3, #4]
 1553 0020 43F00802 		orr	r2, r3, #8
 1554 0024 FB68     		ldr	r3, [r7, #12]
 1555 0026 5A60     		str	r2, [r3, #4]
 652:..\ugfx_2.6\src\gos/gos_x_threads.c **** 
 653:..\ugfx_2.6\src\gos/gos_x_threads.c **** 	// Wait for the thread to die
 654:..\ugfx_2.6\src\gos/gos_x_threads.c **** 	while(!(t->flags & FLG_THD_DEAD))
 1556              		.loc 3 654 0
 1557 0028 01E0     		b	.L110
 1558              	.L111:
 655:..\ugfx_2.6\src\gos/gos_x_threads.c **** 		gfxYield();
 1559              		.loc 3 655 0
 1560 002a FFF7FEFF 		bl	gfxYield
 1561              	.L110:
 654:..\ugfx_2.6\src\gos/gos_x_threads.c **** 		gfxYield();
 1562              		.loc 3 654 0
 1563 002e FB68     		ldr	r3, [r7, #12]
 1564 0030 5B68     		ldr	r3, [r3, #4]
 1565 0032 03F00403 		and	r3, r3, #4
ARM GAS  C:\Users\joel\AppData\Local\Temp\cc53xt53.s 			page 45


 1566 0036 002B     		cmp	r3, #0
 1567 0038 F7D0     		beq	.L111
 656:..\ugfx_2.6\src\gos/gos_x_threads.c **** 
 657:..\ugfx_2.6\src\gos/gos_x_threads.c **** 	// Unmark
 658:..\ugfx_2.6\src\gos/gos_x_threads.c **** 	t->flags &= ~FLG_THD_WAIT;
 1568              		.loc 3 658 0
 1569 003a FB68     		ldr	r3, [r7, #12]
 1570 003c 5B68     		ldr	r3, [r3, #4]
 1571 003e 23F00802 		bic	r2, r3, #8
 1572 0042 FB68     		ldr	r3, [r7, #12]
 1573 0044 5A60     		str	r2, [r3, #4]
 659:..\ugfx_2.6\src\gos/gos_x_threads.c **** 
 660:..\ugfx_2.6\src\gos/gos_x_threads.c **** 	// Clean up resources if needed
 661:..\ugfx_2.6\src\gos/gos_x_threads.c **** 	if (t->flags & FLG_THD_ALLOC)
 1574              		.loc 3 661 0
 1575 0046 FB68     		ldr	r3, [r7, #12]
 1576 0048 5B68     		ldr	r3, [r3, #4]
 1577 004a 03F00103 		and	r3, r3, #1
 1578 004e 002B     		cmp	r3, #0
 1579 0050 02D0     		beq	.L112
 662:..\ugfx_2.6\src\gos/gos_x_threads.c **** 		gfxFree(t);
 1580              		.loc 3 662 0
 1581 0052 F868     		ldr	r0, [r7, #12]
 1582 0054 FFF7FEFF 		bl	gfxFree
 1583              	.L112:
 663:..\ugfx_2.6\src\gos/gos_x_threads.c **** 
 664:..\ugfx_2.6\src\gos/gos_x_threads.c **** 	// Return the status left by the dead process
 665:..\ugfx_2.6\src\gos/gos_x_threads.c **** 	return (threadreturn_t)t->param;
 1584              		.loc 3 665 0
 1585 0058 FB68     		ldr	r3, [r7, #12]
 1586 005a 1B69     		ldr	r3, [r3, #16]
 1587              	.L109:
 666:..\ugfx_2.6\src\gos/gos_x_threads.c **** }
 1588              		.loc 3 666 0
 1589 005c 1846     		mov	r0, r3
 1590 005e 1037     		adds	r7, r7, #16
 1591              		.cfi_def_cfa_offset 8
 1592 0060 BD46     		mov	sp, r7
 1593              		.cfi_def_cfa_register 13
 1594              		@ sp needed
 1595 0062 80BD     		pop	{r7, pc}
 1596              	.L114:
 1597              		.align	2
 1598              	.L113:
 1599 0064 14000000 		.word	current
 1600              		.cfi_endproc
 1601              	.LFE29:
 1602              		.size	gfxThreadWait, .-gfxThreadWait
 1603              		.bss
 1604              		.align	2
 1605              	firstSlot:
 1606 0030 00000000 		.space	4
 1607              		.align	2
 1608              	lastSlot:
 1609 0034 00000000 		.space	4
 1610              		.align	2
 1611              	freeSlots:
ARM GAS  C:\Users\joel\AppData\Local\Temp\cc53xt53.s 			page 46


 1612 0038 00000000 		.space	4
 1613              		.align	2
 1614              	heap:
 1615 003c 00000000 		.space	20480
 1615      00000000 
 1615      00000000 
 1615      00000000 
 1615      00000000 
 1616              		.section	.text._gosHeapInit,"ax",%progbits
 1617              		.align	2
 1618              		.global	_gosHeapInit
 1619              		.thumb
 1620              		.thumb_func
 1621              		.type	_gosHeapInit, %function
 1622              	_gosHeapInit:
 1623              	.LFB30:
 1624              		.file 4 "..\\ugfx_2.6\\src\\gos/gos_x_heap.c"
   1:..\ugfx_2.6\src\gos/gos_x_heap.c **** /*
   2:..\ugfx_2.6\src\gos/gos_x_heap.c ****  * This file is subject to the terms of the GFX License. If a copy of
   3:..\ugfx_2.6\src\gos/gos_x_heap.c ****  * the license was not distributed with this file, you can obtain one at:
   4:..\ugfx_2.6\src\gos/gos_x_heap.c ****  *
   5:..\ugfx_2.6\src\gos/gos_x_heap.c ****  *              http://ugfx.org/license.html
   6:..\ugfx_2.6\src\gos/gos_x_heap.c ****  */
   7:..\ugfx_2.6\src\gos/gos_x_heap.c **** 
   8:..\ugfx_2.6\src\gos/gos_x_heap.c **** #include "../../gfx.h"
   9:..\ugfx_2.6\src\gos/gos_x_heap.c **** 
  10:..\ugfx_2.6\src\gos/gos_x_heap.c **** #if GOS_NEED_X_HEAP
  11:..\ugfx_2.6\src\gos/gos_x_heap.c **** 
  12:..\ugfx_2.6\src\gos/gos_x_heap.c **** #include <string.h>				// Prototype for memcpy()
  13:..\ugfx_2.6\src\gos/gos_x_heap.c **** 
  14:..\ugfx_2.6\src\gos/gos_x_heap.c **** 
  15:..\ugfx_2.6\src\gos/gos_x_heap.c **** #if GFX_OS_HEAP_SIZE == 0
  16:..\ugfx_2.6\src\gos/gos_x_heap.c **** 	#include <stdlib.h>				// Prototype for malloc(), realloc() and free()
  17:..\ugfx_2.6\src\gos/gos_x_heap.c **** 
  18:..\ugfx_2.6\src\gos/gos_x_heap.c **** 	void _gosHeapInit(void) {
  19:..\ugfx_2.6\src\gos/gos_x_heap.c **** 	}
  20:..\ugfx_2.6\src\gos/gos_x_heap.c **** 	void *gfxAlloc(size_t sz) {
  21:..\ugfx_2.6\src\gos/gos_x_heap.c **** 		return malloc(sz);
  22:..\ugfx_2.6\src\gos/gos_x_heap.c **** 	}
  23:..\ugfx_2.6\src\gos/gos_x_heap.c **** 
  24:..\ugfx_2.6\src\gos/gos_x_heap.c **** 	void *gfxRealloc(void *ptr, size_t oldsz, size_t newsz) {
  25:..\ugfx_2.6\src\gos/gos_x_heap.c **** 		(void) oldsz;
  26:..\ugfx_2.6\src\gos/gos_x_heap.c **** 		return realloc(ptr, newsz);
  27:..\ugfx_2.6\src\gos/gos_x_heap.c **** 	}
  28:..\ugfx_2.6\src\gos/gos_x_heap.c **** 
  29:..\ugfx_2.6\src\gos/gos_x_heap.c **** 	void gfxFree(void *ptr) {
  30:..\ugfx_2.6\src\gos/gos_x_heap.c **** 		free(ptr);
  31:..\ugfx_2.6\src\gos/gos_x_heap.c **** 	}
  32:..\ugfx_2.6\src\gos/gos_x_heap.c **** 
  33:..\ugfx_2.6\src\gos/gos_x_heap.c **** #else
  34:..\ugfx_2.6\src\gos/gos_x_heap.c **** 
  35:..\ugfx_2.6\src\gos/gos_x_heap.c **** 	// Slot structure - user memory follows
  36:..\ugfx_2.6\src\gos/gos_x_heap.c **** 	typedef struct memslot {
  37:..\ugfx_2.6\src\gos/gos_x_heap.c **** 		struct memslot *next;		// The next memslot
  38:..\ugfx_2.6\src\gos/gos_x_heap.c **** 		size_t			sz;			// Includes the size of this memslot.
  39:..\ugfx_2.6\src\gos/gos_x_heap.c **** 		} memslot;
  40:..\ugfx_2.6\src\gos/gos_x_heap.c **** 
ARM GAS  C:\Users\joel\AppData\Local\Temp\cc53xt53.s 			page 47


  41:..\ugfx_2.6\src\gos/gos_x_heap.c **** 	// Free Slot - immediately follows the memslot structure
  42:..\ugfx_2.6\src\gos/gos_x_heap.c **** 	typedef struct freeslot {
  43:..\ugfx_2.6\src\gos/gos_x_heap.c **** 		memslot *nextfree;			// The next free slot
  44:..\ugfx_2.6\src\gos/gos_x_heap.c **** 	} freeslot;
  45:..\ugfx_2.6\src\gos/gos_x_heap.c **** 
  46:..\ugfx_2.6\src\gos/gos_x_heap.c **** 	#define GetSlotSize(sz)		((((sz) + (sizeof(freeslot) - 1)) & ~(sizeof(freeslot) - 1)) + sizeof(mem
  47:..\ugfx_2.6\src\gos/gos_x_heap.c **** 	#define NextFree(pslot)		((freeslot *)Slot2Ptr(pslot))->nextfree
  48:..\ugfx_2.6\src\gos/gos_x_heap.c **** 	#define Ptr2Slot(p)			((memslot *)(p) - 1)
  49:..\ugfx_2.6\src\gos/gos_x_heap.c **** 	#define Slot2Ptr(pslot)		((pslot)+1)
  50:..\ugfx_2.6\src\gos/gos_x_heap.c **** 
  51:..\ugfx_2.6\src\gos/gos_x_heap.c **** 	static memslot *			firstSlot;
  52:..\ugfx_2.6\src\gos/gos_x_heap.c **** 	static memslot *			lastSlot;
  53:..\ugfx_2.6\src\gos/gos_x_heap.c **** 	static memslot *			freeSlots;
  54:..\ugfx_2.6\src\gos/gos_x_heap.c **** 	static char					heap[GFX_OS_HEAP_SIZE];
  55:..\ugfx_2.6\src\gos/gos_x_heap.c **** 
  56:..\ugfx_2.6\src\gos/gos_x_heap.c **** 	void _gosHeapInit(void) {
 1625              		.loc 4 56 0
 1626              		.cfi_startproc
 1627              		@ args = 0, pretend = 0, frame = 0
 1628              		@ frame_needed = 1, uses_anonymous_args = 0
 1629 0000 80B5     		push	{r7, lr}
 1630              		.cfi_def_cfa_offset 8
 1631              		.cfi_offset 7, -8
 1632              		.cfi_offset 14, -4
 1633 0002 00AF     		add	r7, sp, #0
 1634              		.cfi_def_cfa_register 7
  57:..\ugfx_2.6\src\gos/gos_x_heap.c **** 		lastSlot = 0;
 1635              		.loc 4 57 0
 1636 0004 044B     		ldr	r3, .L116
 1637 0006 0022     		movs	r2, #0
 1638 0008 1A60     		str	r2, [r3]
  58:..\ugfx_2.6\src\gos/gos_x_heap.c **** 		gfxAddHeapBlock(heap, GFX_OS_HEAP_SIZE);
 1639              		.loc 4 58 0
 1640 000a 0448     		ldr	r0, .L116+4
 1641 000c 4FF4A041 		mov	r1, #20480
 1642 0010 FFF7FEFF 		bl	gfxAddHeapBlock
  59:..\ugfx_2.6\src\gos/gos_x_heap.c **** 	}
 1643              		.loc 4 59 0
 1644 0014 80BD     		pop	{r7, pc}
 1645              	.L117:
 1646 0016 00BF     		.align	2
 1647              	.L116:
 1648 0018 34000000 		.word	lastSlot
 1649 001c 3C000000 		.word	heap
 1650              		.cfi_endproc
 1651              	.LFE30:
 1652              		.size	_gosHeapInit, .-_gosHeapInit
 1653              		.section	.text.gfxAddHeapBlock,"ax",%progbits
 1654              		.align	2
 1655              		.global	gfxAddHeapBlock
 1656              		.thumb
 1657              		.thumb_func
 1658              		.type	gfxAddHeapBlock, %function
 1659              	gfxAddHeapBlock:
 1660              	.LFB31:
  60:..\ugfx_2.6\src\gos/gos_x_heap.c **** 
  61:..\ugfx_2.6\src\gos/gos_x_heap.c **** 	void gfxAddHeapBlock(void *ptr, size_t sz) {
ARM GAS  C:\Users\joel\AppData\Local\Temp\cc53xt53.s 			page 48


 1661              		.loc 4 61 0
 1662              		.cfi_startproc
 1663              		@ args = 0, pretend = 0, frame = 8
 1664              		@ frame_needed = 1, uses_anonymous_args = 0
 1665              		@ link register save eliminated.
 1666 0000 80B4     		push	{r7}
 1667              		.cfi_def_cfa_offset 4
 1668              		.cfi_offset 7, -4
 1669 0002 83B0     		sub	sp, sp, #12
 1670              		.cfi_def_cfa_offset 16
 1671 0004 00AF     		add	r7, sp, #0
 1672              		.cfi_def_cfa_register 7
 1673 0006 7860     		str	r0, [r7, #4]
 1674 0008 3960     		str	r1, [r7]
  62:..\ugfx_2.6\src\gos/gos_x_heap.c **** 		if (sz < sizeof(memslot)+sizeof(freeslot))
 1675              		.loc 4 62 0
 1676 000a 3B68     		ldr	r3, [r7]
 1677 000c 0B2B     		cmp	r3, #11
 1678 000e 00D8     		bhi	.L119
  63:..\ugfx_2.6\src\gos/gos_x_heap.c **** 			return;
 1679              		.loc 4 63 0
 1680 0010 20E0     		b	.L118
 1681              	.L119:
  64:..\ugfx_2.6\src\gos/gos_x_heap.c **** 
  65:..\ugfx_2.6\src\gos/gos_x_heap.c **** 		if (lastSlot)
 1682              		.loc 4 65 0
 1683 0012 134B     		ldr	r3, .L123
 1684 0014 1B68     		ldr	r3, [r3]
 1685 0016 002B     		cmp	r3, #0
 1686 0018 04D0     		beq	.L121
  66:..\ugfx_2.6\src\gos/gos_x_heap.c **** 			lastSlot->next = (memslot *)ptr;
 1687              		.loc 4 66 0
 1688 001a 114B     		ldr	r3, .L123
 1689 001c 1B68     		ldr	r3, [r3]
 1690 001e 7A68     		ldr	r2, [r7, #4]
 1691 0020 1A60     		str	r2, [r3]
 1692 0022 0AE0     		b	.L122
 1693              	.L121:
  67:..\ugfx_2.6\src\gos/gos_x_heap.c **** 		else
  68:..\ugfx_2.6\src\gos/gos_x_heap.c **** 			firstSlot = lastSlot = freeSlots = (memslot *)ptr;
 1694              		.loc 4 68 0
 1695 0024 0F4A     		ldr	r2, .L123+4
 1696 0026 7B68     		ldr	r3, [r7, #4]
 1697 0028 1360     		str	r3, [r2]
 1698 002a 0E4B     		ldr	r3, .L123+4
 1699 002c 1B68     		ldr	r3, [r3]
 1700 002e 0C4A     		ldr	r2, .L123
 1701 0030 1360     		str	r3, [r2]
 1702 0032 0B4B     		ldr	r3, .L123
 1703 0034 1B68     		ldr	r3, [r3]
 1704 0036 0C4A     		ldr	r2, .L123+8
 1705 0038 1360     		str	r3, [r2]
 1706              	.L122:
  69:..\ugfx_2.6\src\gos/gos_x_heap.c **** 
  70:..\ugfx_2.6\src\gos/gos_x_heap.c **** 		lastSlot->next = 0;
 1707              		.loc 4 70 0
 1708 003a 094B     		ldr	r3, .L123
ARM GAS  C:\Users\joel\AppData\Local\Temp\cc53xt53.s 			page 49


 1709 003c 1B68     		ldr	r3, [r3]
 1710 003e 0022     		movs	r2, #0
 1711 0040 1A60     		str	r2, [r3]
  71:..\ugfx_2.6\src\gos/gos_x_heap.c **** 		lastSlot->sz = sz;
 1712              		.loc 4 71 0
 1713 0042 074B     		ldr	r3, .L123
 1714 0044 1B68     		ldr	r3, [r3]
 1715 0046 3A68     		ldr	r2, [r7]
 1716 0048 5A60     		str	r2, [r3, #4]
  72:..\ugfx_2.6\src\gos/gos_x_heap.c **** 		NextFree(lastSlot) = 0;
 1717              		.loc 4 72 0
 1718 004a 054B     		ldr	r3, .L123
 1719 004c 1B68     		ldr	r3, [r3]
 1720 004e 0833     		adds	r3, r3, #8
 1721 0050 0022     		movs	r2, #0
 1722 0052 1A60     		str	r2, [r3]
 1723              	.L118:
  73:..\ugfx_2.6\src\gos/gos_x_heap.c **** 	}
 1724              		.loc 4 73 0
 1725 0054 0C37     		adds	r7, r7, #12
 1726              		.cfi_def_cfa_offset 4
 1727 0056 BD46     		mov	sp, r7
 1728              		.cfi_def_cfa_register 13
 1729              		@ sp needed
 1730 0058 5DF8047B 		ldr	r7, [sp], #4
 1731              		.cfi_restore 7
 1732              		.cfi_def_cfa_offset 0
 1733 005c 7047     		bx	lr
 1734              	.L124:
 1735 005e 00BF     		.align	2
 1736              	.L123:
 1737 0060 34000000 		.word	lastSlot
 1738 0064 38000000 		.word	freeSlots
 1739 0068 30000000 		.word	firstSlot
 1740              		.cfi_endproc
 1741              	.LFE31:
 1742              		.size	gfxAddHeapBlock, .-gfxAddHeapBlock
 1743              		.section	.text.gfxAlloc,"ax",%progbits
 1744              		.align	2
 1745              		.global	gfxAlloc
 1746              		.thumb
 1747              		.thumb_func
 1748              		.type	gfxAlloc, %function
 1749              	gfxAlloc:
 1750              	.LFB32:
  74:..\ugfx_2.6\src\gos/gos_x_heap.c **** 
  75:..\ugfx_2.6\src\gos/gos_x_heap.c **** 	void *gfxAlloc(size_t sz) {
 1751              		.loc 4 75 0
 1752              		.cfi_startproc
 1753              		@ args = 0, pretend = 0, frame = 8
 1754              		@ frame_needed = 1, uses_anonymous_args = 0
 1755              		@ link register save eliminated.
 1756 0000 F0B4     		push	{r4, r5, r6, r7}
 1757              		.cfi_def_cfa_offset 16
 1758              		.cfi_offset 4, -16
 1759              		.cfi_offset 5, -12
 1760              		.cfi_offset 6, -8
ARM GAS  C:\Users\joel\AppData\Local\Temp\cc53xt53.s 			page 50


 1761              		.cfi_offset 7, -4
 1762 0002 82B0     		sub	sp, sp, #8
 1763              		.cfi_def_cfa_offset 24
 1764 0004 00AF     		add	r7, sp, #0
 1765              		.cfi_def_cfa_register 7
 1766 0006 7860     		str	r0, [r7, #4]
  76:..\ugfx_2.6\src\gos/gos_x_heap.c **** 		register memslot *prev, *p, *new;
  77:..\ugfx_2.6\src\gos/gos_x_heap.c **** 
  78:..\ugfx_2.6\src\gos/gos_x_heap.c **** 		if (!sz) return 0;
 1767              		.loc 4 78 0
 1768 0008 7B68     		ldr	r3, [r7, #4]
 1769 000a 002B     		cmp	r3, #0
 1770 000c 01D1     		bne	.L126
 1771              		.loc 4 78 0 is_stmt 0 discriminator 1
 1772 000e 0023     		movs	r3, #0
 1773 0010 45E0     		b	.L127
 1774              	.L126:
  79:..\ugfx_2.6\src\gos/gos_x_heap.c **** 		sz = GetSlotSize(sz);
 1775              		.loc 4 79 0 is_stmt 1
 1776 0012 7B68     		ldr	r3, [r7, #4]
 1777 0014 0333     		adds	r3, r3, #3
 1778 0016 23F00303 		bic	r3, r3, #3
 1779 001a 0833     		adds	r3, r3, #8
 1780 001c 7B60     		str	r3, [r7, #4]
  80:..\ugfx_2.6\src\gos/gos_x_heap.c **** 		for (prev = 0, p = freeSlots; p != 0; prev = p, p = NextFree(p)) {
 1781              		.loc 4 80 0
 1782 001e 0026     		movs	r6, #0
 1783 0020 214B     		ldr	r3, .L135
 1784 0022 1C68     		ldr	r4, [r3]
 1785 0024 38E0     		b	.L128
 1786              	.L134:
  81:..\ugfx_2.6\src\gos/gos_x_heap.c **** 			// Loop till we have a block big enough
  82:..\ugfx_2.6\src\gos/gos_x_heap.c **** 			if (p->sz < sz)
 1787              		.loc 4 82 0
 1788 0026 6268     		ldr	r2, [r4, #4]
 1789 0028 7B68     		ldr	r3, [r7, #4]
 1790 002a 9A42     		cmp	r2, r3
 1791 002c 04D2     		bcs	.L129
  80:..\ugfx_2.6\src\gos/gos_x_heap.c **** 		for (prev = 0, p = freeSlots; p != 0; prev = p, p = NextFree(p)) {
 1792              		.loc 4 80 0
 1793 002e 2646     		mov	r6, r4
 1794 0030 04F10803 		add	r3, r4, #8
 1795 0034 1C68     		ldr	r4, [r3]
 1796 0036 2FE0     		b	.L128
 1797              	.L129:
  83:..\ugfx_2.6\src\gos/gos_x_heap.c **** 				continue;
  84:..\ugfx_2.6\src\gos/gos_x_heap.c **** 			// Can we save some memory by splitting this block?
  85:..\ugfx_2.6\src\gos/gos_x_heap.c **** 			if (p->sz >= sz + sizeof(memslot)+sizeof(freeslot)) {
 1798              		.loc 4 85 0
 1799 0038 6268     		ldr	r2, [r4, #4]
 1800 003a 7B68     		ldr	r3, [r7, #4]
 1801 003c 0C33     		adds	r3, r3, #12
 1802 003e 9A42     		cmp	r2, r3
 1803 0040 19D3     		bcc	.L130
  86:..\ugfx_2.6\src\gos/gos_x_heap.c **** 				new = (memslot *)((char *)p + sz);
 1804              		.loc 4 86 0
 1805 0042 7B68     		ldr	r3, [r7, #4]
ARM GAS  C:\Users\joel\AppData\Local\Temp\cc53xt53.s 			page 51


 1806 0044 E518     		adds	r5, r4, r3
  87:..\ugfx_2.6\src\gos/gos_x_heap.c **** 				new->next = p->next;
 1807              		.loc 4 87 0
 1808 0046 2368     		ldr	r3, [r4]
 1809 0048 2B60     		str	r3, [r5]
  88:..\ugfx_2.6\src\gos/gos_x_heap.c **** 				p->next = new;
 1810              		.loc 4 88 0
 1811 004a 2560     		str	r5, [r4]
  89:..\ugfx_2.6\src\gos/gos_x_heap.c **** 				new->sz = p->sz - sz;
 1812              		.loc 4 89 0
 1813 004c 6268     		ldr	r2, [r4, #4]
 1814 004e 7B68     		ldr	r3, [r7, #4]
 1815 0050 D31A     		subs	r3, r2, r3
 1816 0052 6B60     		str	r3, [r5, #4]
  90:..\ugfx_2.6\src\gos/gos_x_heap.c **** 				p->sz = sz;
 1817              		.loc 4 90 0
 1818 0054 7B68     		ldr	r3, [r7, #4]
 1819 0056 6360     		str	r3, [r4, #4]
  91:..\ugfx_2.6\src\gos/gos_x_heap.c **** 				if (lastSlot == p)
 1820              		.loc 4 91 0
 1821 0058 144B     		ldr	r3, .L135+4
 1822 005a 1B68     		ldr	r3, [r3]
 1823 005c A342     		cmp	r3, r4
 1824 005e 01D1     		bne	.L131
  92:..\ugfx_2.6\src\gos/gos_x_heap.c **** 					lastSlot = new;
 1825              		.loc 4 92 0
 1826 0060 124B     		ldr	r3, .L135+4
 1827 0062 1D60     		str	r5, [r3]
 1828              	.L131:
  93:..\ugfx_2.6\src\gos/gos_x_heap.c **** 				NextFree(new) = NextFree(p);
 1829              		.loc 4 93 0
 1830 0064 05F10803 		add	r3, r5, #8
 1831 0068 04F10802 		add	r2, r4, #8
 1832 006c 1268     		ldr	r2, [r2]
 1833 006e 1A60     		str	r2, [r3]
  94:..\ugfx_2.6\src\gos/gos_x_heap.c **** 				NextFree(p) = new;
 1834              		.loc 4 94 0
 1835 0070 04F10803 		add	r3, r4, #8
 1836 0074 1D60     		str	r5, [r3]
 1837              	.L130:
  95:..\ugfx_2.6\src\gos/gos_x_heap.c **** 			}
  96:..\ugfx_2.6\src\gos/gos_x_heap.c **** 			// Remove it from the free list
  97:..\ugfx_2.6\src\gos/gos_x_heap.c **** 			if (prev)
 1838              		.loc 4 97 0
 1839 0076 002E     		cmp	r6, #0
 1840 0078 06D0     		beq	.L132
  98:..\ugfx_2.6\src\gos/gos_x_heap.c **** 				NextFree(prev) = NextFree(p);
 1841              		.loc 4 98 0
 1842 007a 06F10803 		add	r3, r6, #8
 1843 007e 04F10802 		add	r2, r4, #8
 1844 0082 1268     		ldr	r2, [r2]
 1845 0084 1A60     		str	r2, [r3]
 1846 0086 04E0     		b	.L133
 1847              	.L132:
  99:..\ugfx_2.6\src\gos/gos_x_heap.c **** 			else
 100:..\ugfx_2.6\src\gos/gos_x_heap.c **** 				freeSlots = NextFree(p);
 1848              		.loc 4 100 0
ARM GAS  C:\Users\joel\AppData\Local\Temp\cc53xt53.s 			page 52


 1849 0088 04F10803 		add	r3, r4, #8
 1850 008c 1B68     		ldr	r3, [r3]
 1851 008e 064A     		ldr	r2, .L135
 1852 0090 1360     		str	r3, [r2]
 1853              	.L133:
 101:..\ugfx_2.6\src\gos/gos_x_heap.c **** 			// Return the result found
 102:..\ugfx_2.6\src\gos/gos_x_heap.c **** 			return Slot2Ptr(p);
 1854              		.loc 4 102 0
 1855 0092 04F10803 		add	r3, r4, #8
 1856 0096 02E0     		b	.L127
 1857              	.L128:
  80:..\ugfx_2.6\src\gos/gos_x_heap.c **** 			// Loop till we have a block big enough
 1858              		.loc 4 80 0 discriminator 1
 1859 0098 002C     		cmp	r4, #0
 1860 009a C4D1     		bne	.L134
 103:..\ugfx_2.6\src\gos/gos_x_heap.c **** 		}
 104:..\ugfx_2.6\src\gos/gos_x_heap.c **** 		// No slots large enough
 105:..\ugfx_2.6\src\gos/gos_x_heap.c **** 		return 0;
 1861              		.loc 4 105 0
 1862 009c 0023     		movs	r3, #0
 1863              	.L127:
 106:..\ugfx_2.6\src\gos/gos_x_heap.c **** 	}
 1864              		.loc 4 106 0
 1865 009e 1846     		mov	r0, r3
 1866 00a0 0837     		adds	r7, r7, #8
 1867              		.cfi_def_cfa_offset 16
 1868 00a2 BD46     		mov	sp, r7
 1869              		.cfi_def_cfa_register 13
 1870              		@ sp needed
 1871 00a4 F0BC     		pop	{r4, r5, r6, r7}
 1872              		.cfi_restore 7
 1873              		.cfi_restore 6
 1874              		.cfi_restore 5
 1875              		.cfi_restore 4
 1876              		.cfi_def_cfa_offset 0
 1877 00a6 7047     		bx	lr
 1878              	.L136:
 1879              		.align	2
 1880              	.L135:
 1881 00a8 38000000 		.word	freeSlots
 1882 00ac 34000000 		.word	lastSlot
 1883              		.cfi_endproc
 1884              	.LFE32:
 1885              		.size	gfxAlloc, .-gfxAlloc
 1886              		.section	.text.gfxRealloc,"ax",%progbits
 1887              		.align	2
 1888              		.global	gfxRealloc
 1889              		.thumb
 1890              		.thumb_func
 1891              		.type	gfxRealloc, %function
 1892              	gfxRealloc:
 1893              	.LFB33:
 107:..\ugfx_2.6\src\gos/gos_x_heap.c **** 
 108:..\ugfx_2.6\src\gos/gos_x_heap.c **** 	void *gfxRealloc(void *ptr, size_t oldsz, size_t sz) {
 1894              		.loc 4 108 0
 1895              		.cfi_startproc
 1896              		@ args = 0, pretend = 0, frame = 16
ARM GAS  C:\Users\joel\AppData\Local\Temp\cc53xt53.s 			page 53


 1897              		@ frame_needed = 1, uses_anonymous_args = 0
 1898 0000 F0B5     		push	{r4, r5, r6, r7, lr}
 1899              		.cfi_def_cfa_offset 20
 1900              		.cfi_offset 4, -20
 1901              		.cfi_offset 5, -16
 1902              		.cfi_offset 6, -12
 1903              		.cfi_offset 7, -8
 1904              		.cfi_offset 14, -4
 1905 0002 85B0     		sub	sp, sp, #20
 1906              		.cfi_def_cfa_offset 40
 1907 0004 00AF     		add	r7, sp, #0
 1908              		.cfi_def_cfa_register 7
 1909 0006 F860     		str	r0, [r7, #12]
 1910 0008 B960     		str	r1, [r7, #8]
 1911 000a 7A60     		str	r2, [r7, #4]
 109:..\ugfx_2.6\src\gos/gos_x_heap.c **** 		register memslot *prev, *p, *new;
 110:..\ugfx_2.6\src\gos/gos_x_heap.c **** 		(void) oldsz;
 111:..\ugfx_2.6\src\gos/gos_x_heap.c **** 
 112:..\ugfx_2.6\src\gos/gos_x_heap.c **** 		if (!ptr)
 1912              		.loc 4 112 0
 1913 000c FB68     		ldr	r3, [r7, #12]
 1914 000e 002B     		cmp	r3, #0
 1915 0010 04D1     		bne	.L138
 113:..\ugfx_2.6\src\gos/gos_x_heap.c **** 			return gfxAlloc(sz);
 1916              		.loc 4 113 0
 1917 0012 7868     		ldr	r0, [r7, #4]
 1918 0014 FFF7FEFF 		bl	gfxAlloc
 1919 0018 0346     		mov	r3, r0
 1920 001a 75E0     		b	.L139
 1921              	.L138:
 114:..\ugfx_2.6\src\gos/gos_x_heap.c **** 		if (!sz) {
 1922              		.loc 4 114 0
 1923 001c 7B68     		ldr	r3, [r7, #4]
 1924 001e 002B     		cmp	r3, #0
 1925 0020 04D1     		bne	.L140
 115:..\ugfx_2.6\src\gos/gos_x_heap.c **** 			gfxFree(ptr);
 1926              		.loc 4 115 0
 1927 0022 F868     		ldr	r0, [r7, #12]
 1928 0024 FFF7FEFF 		bl	gfxFree
 116:..\ugfx_2.6\src\gos/gos_x_heap.c **** 			return 0;
 1929              		.loc 4 116 0
 1930 0028 0023     		movs	r3, #0
 1931 002a 6DE0     		b	.L139
 1932              	.L140:
 117:..\ugfx_2.6\src\gos/gos_x_heap.c **** 		}
 118:..\ugfx_2.6\src\gos/gos_x_heap.c **** 
 119:..\ugfx_2.6\src\gos/gos_x_heap.c **** 		p = Ptr2Slot(ptr);
 1933              		.loc 4 119 0
 1934 002c FB68     		ldr	r3, [r7, #12]
 1935 002e A3F10804 		sub	r4, r3, #8
 120:..\ugfx_2.6\src\gos/gos_x_heap.c **** 		sz = GetSlotSize(sz);
 1936              		.loc 4 120 0
 1937 0032 7B68     		ldr	r3, [r7, #4]
 1938 0034 0333     		adds	r3, r3, #3
 1939 0036 23F00303 		bic	r3, r3, #3
 1940 003a 0833     		adds	r3, r3, #8
 1941 003c 7B60     		str	r3, [r7, #4]
ARM GAS  C:\Users\joel\AppData\Local\Temp\cc53xt53.s 			page 54


 121:..\ugfx_2.6\src\gos/gos_x_heap.c **** 
 122:..\ugfx_2.6\src\gos/gos_x_heap.c **** 		// If the next slot is free (and contiguous) merge it into this one
 123:..\ugfx_2.6\src\gos/gos_x_heap.c **** 		if ((char *)p + p->sz == (char *)p->next) {
 1942              		.loc 4 123 0
 1943 003e 6368     		ldr	r3, [r4, #4]
 1944 0040 E218     		adds	r2, r4, r3
 1945 0042 2368     		ldr	r3, [r4]
 1946 0044 9A42     		cmp	r2, r3
 1947 0046 28D1     		bne	.L141
 124:..\ugfx_2.6\src\gos/gos_x_heap.c **** 			for (prev = 0, new = freeSlots; new != 0; prev = new, new = NextFree(new)) {
 1948              		.loc 4 124 0
 1949 0048 0026     		movs	r6, #0
 1950 004a 314B     		ldr	r3, .L152
 1951 004c 1D68     		ldr	r5, [r3]
 1952 004e 22E0     		b	.L142
 1953              	.L147:
 125:..\ugfx_2.6\src\gos/gos_x_heap.c **** 				if (new == p->next) {
 1954              		.loc 4 125 0
 1955 0050 2368     		ldr	r3, [r4]
 1956 0052 AB42     		cmp	r3, r5
 1957 0054 1BD1     		bne	.L143
 126:..\ugfx_2.6\src\gos/gos_x_heap.c **** 					p->next = new->next;
 1958              		.loc 4 126 0
 1959 0056 2B68     		ldr	r3, [r5]
 1960 0058 2360     		str	r3, [r4]
 127:..\ugfx_2.6\src\gos/gos_x_heap.c **** 					p->sz += new->sz;
 1961              		.loc 4 127 0
 1962 005a 6268     		ldr	r2, [r4, #4]
 1963 005c 6B68     		ldr	r3, [r5, #4]
 1964 005e 1344     		add	r3, r3, r2
 1965 0060 6360     		str	r3, [r4, #4]
 128:..\ugfx_2.6\src\gos/gos_x_heap.c **** 					if (prev)
 1966              		.loc 4 128 0
 1967 0062 002E     		cmp	r6, #0
 1968 0064 06D0     		beq	.L144
 129:..\ugfx_2.6\src\gos/gos_x_heap.c **** 						NextFree(prev) = NextFree(new);
 1969              		.loc 4 129 0
 1970 0066 06F10803 		add	r3, r6, #8
 1971 006a 05F10802 		add	r2, r5, #8
 1972 006e 1268     		ldr	r2, [r2]
 1973 0070 1A60     		str	r2, [r3]
 1974 0072 04E0     		b	.L145
 1975              	.L144:
 130:..\ugfx_2.6\src\gos/gos_x_heap.c **** 					else
 131:..\ugfx_2.6\src\gos/gos_x_heap.c **** 						freeSlots = NextFree(new);
 1976              		.loc 4 131 0
 1977 0074 05F10803 		add	r3, r5, #8
 1978 0078 1B68     		ldr	r3, [r3]
 1979 007a 254A     		ldr	r2, .L152
 1980 007c 1360     		str	r3, [r2]
 1981              	.L145:
 132:..\ugfx_2.6\src\gos/gos_x_heap.c **** 					if (lastSlot == new)
 1982              		.loc 4 132 0
 1983 007e 254B     		ldr	r3, .L152+4
 1984 0080 1B68     		ldr	r3, [r3]
 1985 0082 AB42     		cmp	r3, r5
 1986 0084 02D1     		bne	.L146
ARM GAS  C:\Users\joel\AppData\Local\Temp\cc53xt53.s 			page 55


 133:..\ugfx_2.6\src\gos/gos_x_heap.c **** 						lastSlot = p;
 1987              		.loc 4 133 0
 1988 0086 234B     		ldr	r3, .L152+4
 1989 0088 1C60     		str	r4, [r3]
 134:..\ugfx_2.6\src\gos/gos_x_heap.c **** 					break;
 1990              		.loc 4 134 0
 1991 008a 06E0     		b	.L141
 1992              	.L146:
 1993 008c 05E0     		b	.L141
 1994              	.L143:
 124:..\ugfx_2.6\src\gos/gos_x_heap.c **** 				if (new == p->next) {
 1995              		.loc 4 124 0 discriminator 2
 1996 008e 2E46     		mov	r6, r5
 1997 0090 05F10803 		add	r3, r5, #8
 1998 0094 1D68     		ldr	r5, [r3]
 1999              	.L142:
 124:..\ugfx_2.6\src\gos/gos_x_heap.c **** 				if (new == p->next) {
 2000              		.loc 4 124 0 is_stmt 0 discriminator 1
 2001 0096 002D     		cmp	r5, #0
 2002 0098 DAD1     		bne	.L147
 2003              	.L141:
 135:..\ugfx_2.6\src\gos/gos_x_heap.c **** 				}
 136:..\ugfx_2.6\src\gos/gos_x_heap.c **** 			}
 137:..\ugfx_2.6\src\gos/gos_x_heap.c **** 		}
 138:..\ugfx_2.6\src\gos/gos_x_heap.c **** 
 139:..\ugfx_2.6\src\gos/gos_x_heap.c **** 		// If this block is large enough we are nearly done
 140:..\ugfx_2.6\src\gos/gos_x_heap.c **** 		if (sz < p->sz) {
 2004              		.loc 4 140 0 is_stmt 1
 2005 009a 6268     		ldr	r2, [r4, #4]
 2006 009c 7B68     		ldr	r3, [r7, #4]
 2007 009e 9A42     		cmp	r2, r3
 2008 00a0 1FD9     		bls	.L148
 141:..\ugfx_2.6\src\gos/gos_x_heap.c **** 			// Can we save some memory by splitting this block?
 142:..\ugfx_2.6\src\gos/gos_x_heap.c **** 			if (p->sz >= sz + sizeof(memslot)+sizeof(freeslot)) {
 2009              		.loc 4 142 0
 2010 00a2 6268     		ldr	r2, [r4, #4]
 2011 00a4 7B68     		ldr	r3, [r7, #4]
 2012 00a6 0C33     		adds	r3, r3, #12
 2013 00a8 9A42     		cmp	r2, r3
 2014 00aa 17D3     		bcc	.L149
 143:..\ugfx_2.6\src\gos/gos_x_heap.c **** 				new = (memslot *)((char *)p + sz);
 2015              		.loc 4 143 0
 2016 00ac 7B68     		ldr	r3, [r7, #4]
 2017 00ae E518     		adds	r5, r4, r3
 144:..\ugfx_2.6\src\gos/gos_x_heap.c **** 				new->next = p->next;
 2018              		.loc 4 144 0
 2019 00b0 2368     		ldr	r3, [r4]
 2020 00b2 2B60     		str	r3, [r5]
 145:..\ugfx_2.6\src\gos/gos_x_heap.c **** 				p->next = new;
 2021              		.loc 4 145 0
 2022 00b4 2560     		str	r5, [r4]
 146:..\ugfx_2.6\src\gos/gos_x_heap.c **** 				new->sz = p->sz - sz;
 2023              		.loc 4 146 0
 2024 00b6 6268     		ldr	r2, [r4, #4]
 2025 00b8 7B68     		ldr	r3, [r7, #4]
 2026 00ba D31A     		subs	r3, r2, r3
 2027 00bc 6B60     		str	r3, [r5, #4]
ARM GAS  C:\Users\joel\AppData\Local\Temp\cc53xt53.s 			page 56


 147:..\ugfx_2.6\src\gos/gos_x_heap.c **** 				p->sz = sz;
 2028              		.loc 4 147 0
 2029 00be 7B68     		ldr	r3, [r7, #4]
 2030 00c0 6360     		str	r3, [r4, #4]
 148:..\ugfx_2.6\src\gos/gos_x_heap.c **** 				if (lastSlot == p)
 2031              		.loc 4 148 0
 2032 00c2 144B     		ldr	r3, .L152+4
 2033 00c4 1B68     		ldr	r3, [r3]
 2034 00c6 A342     		cmp	r3, r4
 2035 00c8 01D1     		bne	.L150
 149:..\ugfx_2.6\src\gos/gos_x_heap.c **** 					lastSlot = new;
 2036              		.loc 4 149 0
 2037 00ca 124B     		ldr	r3, .L152+4
 2038 00cc 1D60     		str	r5, [r3]
 2039              	.L150:
 150:..\ugfx_2.6\src\gos/gos_x_heap.c **** 				NextFree(new) = freeSlots;
 2040              		.loc 4 150 0
 2041 00ce 05F10803 		add	r3, r5, #8
 2042 00d2 0F4A     		ldr	r2, .L152
 2043 00d4 1268     		ldr	r2, [r2]
 2044 00d6 1A60     		str	r2, [r3]
 151:..\ugfx_2.6\src\gos/gos_x_heap.c **** 				freeSlots = new;
 2045              		.loc 4 151 0
 2046 00d8 0D4B     		ldr	r3, .L152
 2047 00da 1D60     		str	r5, [r3]
 2048              	.L149:
 152:..\ugfx_2.6\src\gos/gos_x_heap.c **** 			}
 153:..\ugfx_2.6\src\gos/gos_x_heap.c **** 			return Slot2Ptr(p);
 2049              		.loc 4 153 0
 2050 00dc 04F10803 		add	r3, r4, #8
 2051 00e0 12E0     		b	.L139
 2052              	.L148:
 154:..\ugfx_2.6\src\gos/gos_x_heap.c **** 		}
 155:..\ugfx_2.6\src\gos/gos_x_heap.c **** 
 156:..\ugfx_2.6\src\gos/gos_x_heap.c **** 		// We need to do this the hard way
 157:..\ugfx_2.6\src\gos/gos_x_heap.c **** 		new = gfxAlloc(sz);
 2053              		.loc 4 157 0
 2054 00e2 7868     		ldr	r0, [r7, #4]
 2055 00e4 FFF7FEFF 		bl	gfxAlloc
 2056 00e8 0546     		mov	r5, r0
 158:..\ugfx_2.6\src\gos/gos_x_heap.c **** 		if (new)
 2057              		.loc 4 158 0
 2058 00ea 002D     		cmp	r5, #0
 2059 00ec 01D0     		beq	.L151
 159:..\ugfx_2.6\src\gos/gos_x_heap.c **** 			return 0;
 2060              		.loc 4 159 0
 2061 00ee 0023     		movs	r3, #0
 2062 00f0 0AE0     		b	.L139
 2063              	.L151:
 160:..\ugfx_2.6\src\gos/gos_x_heap.c **** 		memcpy(new, ptr, p->sz - sizeof(memslot));
 2064              		.loc 4 160 0
 2065 00f2 6368     		ldr	r3, [r4, #4]
 2066 00f4 083B     		subs	r3, r3, #8
 2067 00f6 2846     		mov	r0, r5
 2068 00f8 F968     		ldr	r1, [r7, #12]
 2069 00fa 1A46     		mov	r2, r3
 2070 00fc FFF7FEFF 		bl	memcpy
ARM GAS  C:\Users\joel\AppData\Local\Temp\cc53xt53.s 			page 57


 161:..\ugfx_2.6\src\gos/gos_x_heap.c **** 		gfxFree(ptr);
 2071              		.loc 4 161 0
 2072 0100 F868     		ldr	r0, [r7, #12]
 2073 0102 FFF7FEFF 		bl	gfxFree
 162:..\ugfx_2.6\src\gos/gos_x_heap.c **** 		return new;
 2074              		.loc 4 162 0
 2075 0106 2B46     		mov	r3, r5
 2076              	.L139:
 163:..\ugfx_2.6\src\gos/gos_x_heap.c **** 	}
 2077              		.loc 4 163 0
 2078 0108 1846     		mov	r0, r3
 2079 010a 1437     		adds	r7, r7, #20
 2080              		.cfi_def_cfa_offset 20
 2081 010c BD46     		mov	sp, r7
 2082              		.cfi_def_cfa_register 13
 2083              		@ sp needed
 2084 010e F0BD     		pop	{r4, r5, r6, r7, pc}
 2085              	.L153:
 2086              		.align	2
 2087              	.L152:
 2088 0110 38000000 		.word	freeSlots
 2089 0114 34000000 		.word	lastSlot
 2090              		.cfi_endproc
 2091              	.LFE33:
 2092              		.size	gfxRealloc, .-gfxRealloc
 2093              		.section	.text.gfxFree,"ax",%progbits
 2094              		.align	2
 2095              		.global	gfxFree
 2096              		.thumb
 2097              		.thumb_func
 2098              		.type	gfxFree, %function
 2099              	gfxFree:
 2100              	.LFB34:
 164:..\ugfx_2.6\src\gos/gos_x_heap.c **** 
 165:..\ugfx_2.6\src\gos/gos_x_heap.c **** 	void gfxFree(void *ptr) {
 2101              		.loc 4 165 0
 2102              		.cfi_startproc
 2103              		@ args = 0, pretend = 0, frame = 8
 2104              		@ frame_needed = 1, uses_anonymous_args = 0
 2105              		@ link register save eliminated.
 2106 0000 F0B4     		push	{r4, r5, r6, r7}
 2107              		.cfi_def_cfa_offset 16
 2108              		.cfi_offset 4, -16
 2109              		.cfi_offset 5, -12
 2110              		.cfi_offset 6, -8
 2111              		.cfi_offset 7, -4
 2112 0002 82B0     		sub	sp, sp, #8
 2113              		.cfi_def_cfa_offset 24
 2114 0004 00AF     		add	r7, sp, #0
 2115              		.cfi_def_cfa_register 7
 2116 0006 7860     		str	r0, [r7, #4]
 166:..\ugfx_2.6\src\gos/gos_x_heap.c **** 		register memslot *prev, *p, *new;
 167:..\ugfx_2.6\src\gos/gos_x_heap.c **** 
 168:..\ugfx_2.6\src\gos/gos_x_heap.c **** 		if (!ptr)
 2117              		.loc 4 168 0
 2118 0008 7B68     		ldr	r3, [r7, #4]
 2119 000a 002B     		cmp	r3, #0
ARM GAS  C:\Users\joel\AppData\Local\Temp\cc53xt53.s 			page 58


 2120 000c 00D1     		bne	.L155
 169:..\ugfx_2.6\src\gos/gos_x_heap.c **** 			return;
 2121              		.loc 4 169 0
 2122 000e 37E0     		b	.L154
 2123              	.L155:
 170:..\ugfx_2.6\src\gos/gos_x_heap.c **** 
 171:..\ugfx_2.6\src\gos/gos_x_heap.c **** 		p = Ptr2Slot(ptr);
 2124              		.loc 4 171 0
 2125 0010 7B68     		ldr	r3, [r7, #4]
 2126 0012 A3F10804 		sub	r4, r3, #8
 172:..\ugfx_2.6\src\gos/gos_x_heap.c **** 
 173:..\ugfx_2.6\src\gos/gos_x_heap.c **** 		// If the next slot is free (and contiguous) merge it into this one
 174:..\ugfx_2.6\src\gos/gos_x_heap.c **** 		if ((char *)p + p->sz == (char *)p->next) {
 2127              		.loc 4 174 0
 2128 0016 6368     		ldr	r3, [r4, #4]
 2129 0018 E218     		adds	r2, r4, r3
 2130 001a 2368     		ldr	r3, [r4]
 2131 001c 9A42     		cmp	r2, r3
 2132 001e 28D1     		bne	.L157
 175:..\ugfx_2.6\src\gos/gos_x_heap.c **** 			for (prev = 0, new = freeSlots; new != 0; prev = new, new = NextFree(new)) {
 2133              		.loc 4 175 0
 2134 0020 0026     		movs	r6, #0
 2135 0022 194B     		ldr	r3, .L164
 2136 0024 1D68     		ldr	r5, [r3]
 2137 0026 22E0     		b	.L158
 2138              	.L163:
 176:..\ugfx_2.6\src\gos/gos_x_heap.c **** 				if (new == p->next) {
 2139              		.loc 4 176 0
 2140 0028 2368     		ldr	r3, [r4]
 2141 002a AB42     		cmp	r3, r5
 2142 002c 1BD1     		bne	.L159
 177:..\ugfx_2.6\src\gos/gos_x_heap.c **** 					p->next = new->next;
 2143              		.loc 4 177 0
 2144 002e 2B68     		ldr	r3, [r5]
 2145 0030 2360     		str	r3, [r4]
 178:..\ugfx_2.6\src\gos/gos_x_heap.c **** 					p->sz += new->sz;
 2146              		.loc 4 178 0
 2147 0032 6268     		ldr	r2, [r4, #4]
 2148 0034 6B68     		ldr	r3, [r5, #4]
 2149 0036 1344     		add	r3, r3, r2
 2150 0038 6360     		str	r3, [r4, #4]
 179:..\ugfx_2.6\src\gos/gos_x_heap.c **** 					if (prev)
 2151              		.loc 4 179 0
 2152 003a 002E     		cmp	r6, #0
 2153 003c 06D0     		beq	.L160
 180:..\ugfx_2.6\src\gos/gos_x_heap.c **** 						NextFree(prev) = NextFree(new);
 2154              		.loc 4 180 0
 2155 003e 06F10803 		add	r3, r6, #8
 2156 0042 05F10802 		add	r2, r5, #8
 2157 0046 1268     		ldr	r2, [r2]
 2158 0048 1A60     		str	r2, [r3]
 2159 004a 04E0     		b	.L161
 2160              	.L160:
 181:..\ugfx_2.6\src\gos/gos_x_heap.c **** 					else
 182:..\ugfx_2.6\src\gos/gos_x_heap.c **** 						freeSlots = NextFree(new);
 2161              		.loc 4 182 0
 2162 004c 05F10803 		add	r3, r5, #8
ARM GAS  C:\Users\joel\AppData\Local\Temp\cc53xt53.s 			page 59


 2163 0050 1B68     		ldr	r3, [r3]
 2164 0052 0D4A     		ldr	r2, .L164
 2165 0054 1360     		str	r3, [r2]
 2166              	.L161:
 183:..\ugfx_2.6\src\gos/gos_x_heap.c **** 					if (lastSlot == new)
 2167              		.loc 4 183 0
 2168 0056 0D4B     		ldr	r3, .L164+4
 2169 0058 1B68     		ldr	r3, [r3]
 2170 005a AB42     		cmp	r3, r5
 2171 005c 02D1     		bne	.L162
 184:..\ugfx_2.6\src\gos/gos_x_heap.c **** 						lastSlot = p;
 2172              		.loc 4 184 0
 2173 005e 0B4B     		ldr	r3, .L164+4
 2174 0060 1C60     		str	r4, [r3]
 185:..\ugfx_2.6\src\gos/gos_x_heap.c **** 					break;
 2175              		.loc 4 185 0
 2176 0062 06E0     		b	.L157
 2177              	.L162:
 2178 0064 05E0     		b	.L157
 2179              	.L159:
 175:..\ugfx_2.6\src\gos/gos_x_heap.c **** 				if (new == p->next) {
 2180              		.loc 4 175 0 discriminator 2
 2181 0066 2E46     		mov	r6, r5
 2182 0068 05F10803 		add	r3, r5, #8
 2183 006c 1D68     		ldr	r5, [r3]
 2184              	.L158:
 175:..\ugfx_2.6\src\gos/gos_x_heap.c **** 				if (new == p->next) {
 2185              		.loc 4 175 0 is_stmt 0 discriminator 1
 2186 006e 002D     		cmp	r5, #0
 2187 0070 DAD1     		bne	.L163
 2188              	.L157:
 186:..\ugfx_2.6\src\gos/gos_x_heap.c **** 				}
 187:..\ugfx_2.6\src\gos/gos_x_heap.c **** 			}
 188:..\ugfx_2.6\src\gos/gos_x_heap.c **** 		}
 189:..\ugfx_2.6\src\gos/gos_x_heap.c **** 
 190:..\ugfx_2.6\src\gos/gos_x_heap.c **** 		// Add it into the free chain
 191:..\ugfx_2.6\src\gos/gos_x_heap.c **** 		NextFree(p) = freeSlots;
 2189              		.loc 4 191 0 is_stmt 1
 2190 0072 04F10803 		add	r3, r4, #8
 2191 0076 044A     		ldr	r2, .L164
 2192 0078 1268     		ldr	r2, [r2]
 2193 007a 1A60     		str	r2, [r3]
 192:..\ugfx_2.6\src\gos/gos_x_heap.c **** 		freeSlots = p;
 2194              		.loc 4 192 0
 2195 007c 024B     		ldr	r3, .L164
 2196 007e 1C60     		str	r4, [r3]
 2197              	.L154:
 193:..\ugfx_2.6\src\gos/gos_x_heap.c **** 	}
 2198              		.loc 4 193 0
 2199 0080 0837     		adds	r7, r7, #8
 2200              		.cfi_def_cfa_offset 16
 2201 0082 BD46     		mov	sp, r7
 2202              		.cfi_def_cfa_register 13
 2203              		@ sp needed
 2204 0084 F0BC     		pop	{r4, r5, r6, r7}
 2205              		.cfi_restore 7
 2206              		.cfi_restore 6
ARM GAS  C:\Users\joel\AppData\Local\Temp\cc53xt53.s 			page 60


 2207              		.cfi_restore 5
 2208              		.cfi_restore 4
 2209              		.cfi_def_cfa_offset 0
 2210 0086 7047     		bx	lr
 2211              	.L165:
 2212              		.align	2
 2213              	.L164:
 2214 0088 38000000 		.word	freeSlots
 2215 008c 34000000 		.word	lastSlot
 2216              		.cfi_endproc
 2217              	.LFE34:
 2218              		.size	gfxFree, .-gfxFree
 2219              		.bss
 2220              		.align	2
 2221              	dhead:
 2222 503c 00000000 		.space	4
 2223              		.align	2
 2224              	dtail:
 2225 5040 00000000 		.space	4
 2226              		.section	.text._gdriverInit,"ax",%progbits
 2227              		.align	2
 2228              		.global	_gdriverInit
 2229              		.thumb
 2230              		.thumb_func
 2231              		.type	_gdriverInit, %function
 2232              	_gdriverInit:
 2233              	.LFB35:
 2234              		.file 5 "..\\ugfx_2.6\\src\\gdriver/gdriver.c"
   1:..\ugfx_2.6\src\gdriver/gdriver.c **** /*
   2:..\ugfx_2.6\src\gdriver/gdriver.c ****  * This file is subject to the terms of the GFX License. If a copy of
   3:..\ugfx_2.6\src\gdriver/gdriver.c ****  * the license was not distributed with this file, you can obtain one at:
   4:..\ugfx_2.6\src\gdriver/gdriver.c ****  *
   5:..\ugfx_2.6\src\gdriver/gdriver.c ****  *              http://ugfx.org/license.html
   6:..\ugfx_2.6\src\gdriver/gdriver.c ****  */
   7:..\ugfx_2.6\src\gdriver/gdriver.c **** 
   8:..\ugfx_2.6\src\gdriver/gdriver.c **** #include "../../gfx.h"
   9:..\ugfx_2.6\src\gdriver/gdriver.c **** 
  10:..\ugfx_2.6\src\gdriver/gdriver.c **** #if GFX_USE_GDRIVER
  11:..\ugfx_2.6\src\gdriver/gdriver.c **** 
  12:..\ugfx_2.6\src\gdriver/gdriver.c **** #include "gdriver.h"
  13:..\ugfx_2.6\src\gdriver/gdriver.c **** 
  14:..\ugfx_2.6\src\gdriver/gdriver.c **** #include <string.h>         // For memset
  15:..\ugfx_2.6\src\gdriver/gdriver.c **** 
  16:..\ugfx_2.6\src\gdriver/gdriver.c **** // Define the tables to hold the driver instances.
  17:..\ugfx_2.6\src\gdriver/gdriver.c **** static GDriver *dhead;
  18:..\ugfx_2.6\src\gdriver/gdriver.c **** static GDriver *dtail;
  19:..\ugfx_2.6\src\gdriver/gdriver.c **** 
  20:..\ugfx_2.6\src\gdriver/gdriver.c **** // The system initialization.
  21:..\ugfx_2.6\src\gdriver/gdriver.c **** void _gdriverInit(void) {
 2235              		.loc 5 21 0
 2236              		.cfi_startproc
 2237              		@ args = 0, pretend = 0, frame = 0
 2238              		@ frame_needed = 1, uses_anonymous_args = 0
 2239              		@ link register save eliminated.
 2240 0000 80B4     		push	{r7}
 2241              		.cfi_def_cfa_offset 4
 2242              		.cfi_offset 7, -4
ARM GAS  C:\Users\joel\AppData\Local\Temp\cc53xt53.s 			page 61


 2243 0002 00AF     		add	r7, sp, #0
 2244              		.cfi_def_cfa_register 7
  22:..\ugfx_2.6\src\gdriver/gdriver.c **** }
 2245              		.loc 5 22 0
 2246 0004 BD46     		mov	sp, r7
 2247              		.cfi_def_cfa_register 13
 2248              		@ sp needed
 2249 0006 5DF8047B 		ldr	r7, [sp], #4
 2250              		.cfi_restore 7
 2251              		.cfi_def_cfa_offset 0
 2252 000a 7047     		bx	lr
 2253              		.cfi_endproc
 2254              	.LFE35:
 2255              		.size	_gdriverInit, .-_gdriverInit
 2256              		.section	.text._gdriverDeinit,"ax",%progbits
 2257              		.align	2
 2258              		.global	_gdriverDeinit
 2259              		.thumb
 2260              		.thumb_func
 2261              		.type	_gdriverDeinit, %function
 2262              	_gdriverDeinit:
 2263              	.LFB36:
  23:..\ugfx_2.6\src\gdriver/gdriver.c **** 
  24:..\ugfx_2.6\src\gdriver/gdriver.c **** // The system de-initialization.
  25:..\ugfx_2.6\src\gdriver/gdriver.c **** void _gdriverDeinit(void) {
 2264              		.loc 5 25 0
 2265              		.cfi_startproc
 2266              		@ args = 0, pretend = 0, frame = 0
 2267              		@ frame_needed = 1, uses_anonymous_args = 0
 2268 0000 80B5     		push	{r7, lr}
 2269              		.cfi_def_cfa_offset 8
 2270              		.cfi_offset 7, -8
 2271              		.cfi_offset 14, -4
 2272 0002 00AF     		add	r7, sp, #0
 2273              		.cfi_def_cfa_register 7
  26:..\ugfx_2.6\src\gdriver/gdriver.c **** 	while(dhead)
 2274              		.loc 5 26 0
 2275 0004 04E0     		b	.L168
 2276              	.L169:
  27:..\ugfx_2.6\src\gdriver/gdriver.c **** 		gdriverUnRegister(dhead);
 2277              		.loc 5 27 0
 2278 0006 054B     		ldr	r3, .L170
 2279 0008 1B68     		ldr	r3, [r3]
 2280 000a 1846     		mov	r0, r3
 2281 000c FFF7FEFF 		bl	gdriverUnRegister
 2282              	.L168:
  26:..\ugfx_2.6\src\gdriver/gdriver.c **** 	while(dhead)
 2283              		.loc 5 26 0
 2284 0010 024B     		ldr	r3, .L170
 2285 0012 1B68     		ldr	r3, [r3]
 2286 0014 002B     		cmp	r3, #0
 2287 0016 F6D1     		bne	.L169
  28:..\ugfx_2.6\src\gdriver/gdriver.c **** }
 2288              		.loc 5 28 0
 2289 0018 80BD     		pop	{r7, pc}
 2290              	.L171:
 2291 001a 00BF     		.align	2
ARM GAS  C:\Users\joel\AppData\Local\Temp\cc53xt53.s 			page 62


 2292              	.L170:
 2293 001c 3C500000 		.word	dhead
 2294              		.cfi_endproc
 2295              	.LFE36:
 2296              		.size	_gdriverDeinit, .-_gdriverDeinit
 2297              		.section	.text.gdriverRegister,"ax",%progbits
 2298              		.align	2
 2299              		.global	gdriverRegister
 2300              		.thumb
 2301              		.thumb_func
 2302              		.type	gdriverRegister, %function
 2303              	gdriverRegister:
 2304              	.LFB37:
  29:..\ugfx_2.6\src\gdriver/gdriver.c **** 
  30:..\ugfx_2.6\src\gdriver/gdriver.c **** 
  31:..\ugfx_2.6\src\gdriver/gdriver.c **** GDriver *gdriverRegister(const GDriverVMT *vmt, void *param) {
 2305              		.loc 5 31 0
 2306              		.cfi_startproc
 2307              		@ args = 0, pretend = 0, frame = 24
 2308              		@ frame_needed = 1, uses_anonymous_args = 0
 2309 0000 90B5     		push	{r4, r7, lr}
 2310              		.cfi_def_cfa_offset 12
 2311              		.cfi_offset 4, -12
 2312              		.cfi_offset 7, -8
 2313              		.cfi_offset 14, -4
 2314 0002 87B0     		sub	sp, sp, #28
 2315              		.cfi_def_cfa_offset 40
 2316 0004 00AF     		add	r7, sp, #0
 2317              		.cfi_def_cfa_register 7
 2318 0006 7860     		str	r0, [r7, #4]
 2319 0008 3960     		str	r1, [r7]
  32:..\ugfx_2.6\src\gdriver/gdriver.c **** 	GDriver *	pd;
  33:..\ugfx_2.6\src\gdriver/gdriver.c **** 	unsigned	dinstance, sinstance;
  34:..\ugfx_2.6\src\gdriver/gdriver.c **** 
  35:..\ugfx_2.6\src\gdriver/gdriver.c **** 	// Loop to find the driver instance and the system instance numbers
  36:..\ugfx_2.6\src\gdriver/gdriver.c **** 	dinstance = sinstance = 0;
 2320              		.loc 5 36 0
 2321 000a 0023     		movs	r3, #0
 2322 000c FB60     		str	r3, [r7, #12]
 2323 000e FB68     		ldr	r3, [r7, #12]
 2324 0010 3B61     		str	r3, [r7, #16]
  37:..\ugfx_2.6\src\gdriver/gdriver.c **** 	for(pd = dhead; pd; pd = pd->driverchain) {
 2325              		.loc 5 37 0
 2326 0012 304B     		ldr	r3, .L183
 2327 0014 1B68     		ldr	r3, [r3]
 2328 0016 7B61     		str	r3, [r7, #20]
 2329 0018 14E0     		b	.L173
 2330              	.L176:
  38:..\ugfx_2.6\src\gdriver/gdriver.c **** 		if (pd->vmt == vmt)
 2331              		.loc 5 38 0
 2332 001a 7B69     		ldr	r3, [r7, #20]
 2333 001c 5A68     		ldr	r2, [r3, #4]
 2334 001e 7B68     		ldr	r3, [r7, #4]
 2335 0020 9A42     		cmp	r2, r3
 2336 0022 02D1     		bne	.L174
  39:..\ugfx_2.6\src\gdriver/gdriver.c **** 			dinstance++;
 2337              		.loc 5 39 0
ARM GAS  C:\Users\joel\AppData\Local\Temp\cc53xt53.s 			page 63


 2338 0024 3B69     		ldr	r3, [r7, #16]
 2339 0026 0133     		adds	r3, r3, #1
 2340 0028 3B61     		str	r3, [r7, #16]
 2341              	.L174:
  40:..\ugfx_2.6\src\gdriver/gdriver.c **** 		if (pd->vmt->type == vmt->type)
 2342              		.loc 5 40 0
 2343 002a 7B69     		ldr	r3, [r7, #20]
 2344 002c 5B68     		ldr	r3, [r3, #4]
 2345 002e 1A88     		ldrh	r2, [r3]
 2346 0030 7B68     		ldr	r3, [r7, #4]
 2347 0032 1B88     		ldrh	r3, [r3]
 2348 0034 9A42     		cmp	r2, r3
 2349 0036 02D1     		bne	.L175
  41:..\ugfx_2.6\src\gdriver/gdriver.c **** 			sinstance++;
 2350              		.loc 5 41 0
 2351 0038 FB68     		ldr	r3, [r7, #12]
 2352 003a 0133     		adds	r3, r3, #1
 2353 003c FB60     		str	r3, [r7, #12]
 2354              	.L175:
  37:..\ugfx_2.6\src\gdriver/gdriver.c **** 		if (pd->vmt == vmt)
 2355              		.loc 5 37 0 discriminator 2
 2356 003e 7B69     		ldr	r3, [r7, #20]
 2357 0040 1B68     		ldr	r3, [r3]
 2358 0042 7B61     		str	r3, [r7, #20]
 2359              	.L173:
  37:..\ugfx_2.6\src\gdriver/gdriver.c **** 		if (pd->vmt == vmt)
 2360              		.loc 5 37 0 is_stmt 0 discriminator 1
 2361 0044 7B69     		ldr	r3, [r7, #20]
 2362 0046 002B     		cmp	r3, #0
 2363 0048 E7D1     		bne	.L176
  42:..\ugfx_2.6\src\gdriver/gdriver.c **** 	}
  43:..\ugfx_2.6\src\gdriver/gdriver.c **** 
  44:..\ugfx_2.6\src\gdriver/gdriver.c **** 	// Get a new driver instance of the correct size and initialize it
  45:..\ugfx_2.6\src\gdriver/gdriver.c **** 	pd = gfxAlloc(vmt->objsize);
 2364              		.loc 5 45 0 is_stmt 1
 2365 004a 7B68     		ldr	r3, [r7, #4]
 2366 004c 5B68     		ldr	r3, [r3, #4]
 2367 004e 1846     		mov	r0, r3
 2368 0050 FFF7FEFF 		bl	gfxAlloc
 2369 0054 7861     		str	r0, [r7, #20]
  46:..\ugfx_2.6\src\gdriver/gdriver.c **** 	if (!pd)
 2370              		.loc 5 46 0
 2371 0056 7B69     		ldr	r3, [r7, #20]
 2372 0058 002B     		cmp	r3, #0
 2373 005a 01D1     		bne	.L177
  47:..\ugfx_2.6\src\gdriver/gdriver.c **** 		return 0;
 2374              		.loc 5 47 0
 2375 005c 0023     		movs	r3, #0
 2376 005e 34E0     		b	.L178
 2377              	.L177:
  48:..\ugfx_2.6\src\gdriver/gdriver.c ****     memset(pd, 0, vmt->objsize);
 2378              		.loc 5 48 0
 2379 0060 7B68     		ldr	r3, [r7, #4]
 2380 0062 5B68     		ldr	r3, [r3, #4]
 2381 0064 7869     		ldr	r0, [r7, #20]
 2382 0066 0021     		movs	r1, #0
 2383 0068 1A46     		mov	r2, r3
ARM GAS  C:\Users\joel\AppData\Local\Temp\cc53xt53.s 			page 64


 2384 006a FFF7FEFF 		bl	memset
  49:..\ugfx_2.6\src\gdriver/gdriver.c **** 	pd->vmt = vmt;
 2385              		.loc 5 49 0
 2386 006e 7B69     		ldr	r3, [r7, #20]
 2387 0070 7A68     		ldr	r2, [r7, #4]
 2388 0072 5A60     		str	r2, [r3, #4]
  50:..\ugfx_2.6\src\gdriver/gdriver.c **** 	if (vmt->init && !vmt->init(pd, param, dinstance, sinstance)) {
 2389              		.loc 5 50 0
 2390 0074 7B68     		ldr	r3, [r7, #4]
 2391 0076 9B68     		ldr	r3, [r3, #8]
 2392 0078 002B     		cmp	r3, #0
 2393 007a 0ED0     		beq	.L179
 2394              		.loc 5 50 0 is_stmt 0 discriminator 1
 2395 007c 7B68     		ldr	r3, [r7, #4]
 2396 007e 9C68     		ldr	r4, [r3, #8]
 2397 0080 7869     		ldr	r0, [r7, #20]
 2398 0082 3968     		ldr	r1, [r7]
 2399 0084 3A69     		ldr	r2, [r7, #16]
 2400 0086 FB68     		ldr	r3, [r7, #12]
 2401 0088 A047     		blx	r4
 2402 008a 0346     		mov	r3, r0
 2403 008c 002B     		cmp	r3, #0
 2404 008e 04D1     		bne	.L179
  51:..\ugfx_2.6\src\gdriver/gdriver.c **** 		gfxFree(pd);
 2405              		.loc 5 51 0 is_stmt 1
 2406 0090 7869     		ldr	r0, [r7, #20]
 2407 0092 FFF7FEFF 		bl	gfxFree
  52:..\ugfx_2.6\src\gdriver/gdriver.c **** 		return 0;
 2408              		.loc 5 52 0
 2409 0096 0023     		movs	r3, #0
 2410 0098 17E0     		b	.L178
 2411              	.L179:
  53:..\ugfx_2.6\src\gdriver/gdriver.c **** 	}
  54:..\ugfx_2.6\src\gdriver/gdriver.c **** 
  55:..\ugfx_2.6\src\gdriver/gdriver.c **** 	// Add it to the driver chain (at the end)
  56:..\ugfx_2.6\src\gdriver/gdriver.c **** 	if (dhead)
 2412              		.loc 5 56 0
 2413 009a 0E4B     		ldr	r3, .L183
 2414 009c 1B68     		ldr	r3, [r3]
 2415 009e 002B     		cmp	r3, #0
 2416 00a0 04D0     		beq	.L180
  57:..\ugfx_2.6\src\gdriver/gdriver.c **** 		dtail->driverchain = pd;
 2417              		.loc 5 57 0
 2418 00a2 0D4B     		ldr	r3, .L183+4
 2419 00a4 1B68     		ldr	r3, [r3]
 2420 00a6 7A69     		ldr	r2, [r7, #20]
 2421 00a8 1A60     		str	r2, [r3]
 2422 00aa 02E0     		b	.L181
 2423              	.L180:
  58:..\ugfx_2.6\src\gdriver/gdriver.c **** 	else
  59:..\ugfx_2.6\src\gdriver/gdriver.c **** 		dhead = pd;
 2424              		.loc 5 59 0
 2425 00ac 094A     		ldr	r2, .L183
 2426 00ae 7B69     		ldr	r3, [r7, #20]
 2427 00b0 1360     		str	r3, [r2]
 2428              	.L181:
  60:..\ugfx_2.6\src\gdriver/gdriver.c **** 	dtail = pd;
ARM GAS  C:\Users\joel\AppData\Local\Temp\cc53xt53.s 			page 65


 2429              		.loc 5 60 0
 2430 00b2 094A     		ldr	r2, .L183+4
 2431 00b4 7B69     		ldr	r3, [r7, #20]
 2432 00b6 1360     		str	r3, [r2]
  61:..\ugfx_2.6\src\gdriver/gdriver.c **** 
  62:..\ugfx_2.6\src\gdriver/gdriver.c **** 	// Do the post init
  63:..\ugfx_2.6\src\gdriver/gdriver.c **** 	if (vmt->postinit)
 2433              		.loc 5 63 0
 2434 00b8 7B68     		ldr	r3, [r7, #4]
 2435 00ba DB68     		ldr	r3, [r3, #12]
 2436 00bc 002B     		cmp	r3, #0
 2437 00be 03D0     		beq	.L182
  64:..\ugfx_2.6\src\gdriver/gdriver.c **** 		vmt->postinit(pd);
 2438              		.loc 5 64 0
 2439 00c0 7B68     		ldr	r3, [r7, #4]
 2440 00c2 DB68     		ldr	r3, [r3, #12]
 2441 00c4 7869     		ldr	r0, [r7, #20]
 2442 00c6 9847     		blx	r3
 2443              	.L182:
  65:..\ugfx_2.6\src\gdriver/gdriver.c **** 
  66:..\ugfx_2.6\src\gdriver/gdriver.c **** 	return pd;
 2444              		.loc 5 66 0
 2445 00c8 7B69     		ldr	r3, [r7, #20]
 2446              	.L178:
  67:..\ugfx_2.6\src\gdriver/gdriver.c **** }
 2447              		.loc 5 67 0
 2448 00ca 1846     		mov	r0, r3
 2449 00cc 1C37     		adds	r7, r7, #28
 2450              		.cfi_def_cfa_offset 12
 2451 00ce BD46     		mov	sp, r7
 2452              		.cfi_def_cfa_register 13
 2453              		@ sp needed
 2454 00d0 90BD     		pop	{r4, r7, pc}
 2455              	.L184:
 2456 00d2 00BF     		.align	2
 2457              	.L183:
 2458 00d4 3C500000 		.word	dhead
 2459 00d8 40500000 		.word	dtail
 2460              		.cfi_endproc
 2461              	.LFE37:
 2462              		.size	gdriverRegister, .-gdriverRegister
 2463              		.section	.text.gdriverUnRegister,"ax",%progbits
 2464              		.align	2
 2465              		.global	gdriverUnRegister
 2466              		.thumb
 2467              		.thumb_func
 2468              		.type	gdriverUnRegister, %function
 2469              	gdriverUnRegister:
 2470              	.LFB38:
  68:..\ugfx_2.6\src\gdriver/gdriver.c **** 
  69:..\ugfx_2.6\src\gdriver/gdriver.c **** void gdriverUnRegister(GDriver *driver) {
 2471              		.loc 5 69 0
 2472              		.cfi_startproc
 2473              		@ args = 0, pretend = 0, frame = 16
 2474              		@ frame_needed = 1, uses_anonymous_args = 0
 2475 0000 80B5     		push	{r7, lr}
 2476              		.cfi_def_cfa_offset 8
ARM GAS  C:\Users\joel\AppData\Local\Temp\cc53xt53.s 			page 66


 2477              		.cfi_offset 7, -8
 2478              		.cfi_offset 14, -4
 2479 0002 84B0     		sub	sp, sp, #16
 2480              		.cfi_def_cfa_offset 24
 2481 0004 00AF     		add	r7, sp, #0
 2482              		.cfi_def_cfa_register 7
 2483 0006 7860     		str	r0, [r7, #4]
  70:..\ugfx_2.6\src\gdriver/gdriver.c **** 	GDriver		*pd;
  71:..\ugfx_2.6\src\gdriver/gdriver.c **** 
  72:..\ugfx_2.6\src\gdriver/gdriver.c **** 	// Safety
  73:..\ugfx_2.6\src\gdriver/gdriver.c **** 	if (!driver)
 2484              		.loc 5 73 0
 2485 0008 7B68     		ldr	r3, [r7, #4]
 2486 000a 002B     		cmp	r3, #0
 2487 000c 00D1     		bne	.L186
  74:..\ugfx_2.6\src\gdriver/gdriver.c **** 		return;
 2488              		.loc 5 74 0
 2489 000e 33E0     		b	.L185
 2490              	.L186:
  75:..\ugfx_2.6\src\gdriver/gdriver.c **** 
  76:..\ugfx_2.6\src\gdriver/gdriver.c **** 	// Remove it from the list of drivers
  77:..\ugfx_2.6\src\gdriver/gdriver.c **** 	if (dhead == driver)
 2491              		.loc 5 77 0
 2492 0010 1B4B     		ldr	r3, .L195
 2493 0012 1A68     		ldr	r2, [r3]
 2494 0014 7B68     		ldr	r3, [r7, #4]
 2495 0016 9A42     		cmp	r2, r3
 2496 0018 04D1     		bne	.L188
  78:..\ugfx_2.6\src\gdriver/gdriver.c **** 		dhead = driver->driverchain;
 2497              		.loc 5 78 0
 2498 001a 7B68     		ldr	r3, [r7, #4]
 2499 001c 1B68     		ldr	r3, [r3]
 2500 001e 184A     		ldr	r2, .L195
 2501 0020 1360     		str	r3, [r2]
 2502 0022 1CE0     		b	.L189
 2503              	.L188:
  79:..\ugfx_2.6\src\gdriver/gdriver.c **** 	else {
  80:..\ugfx_2.6\src\gdriver/gdriver.c **** 		for(pd = dhead; pd->driverchain; pd = pd->driverchain) {
 2504              		.loc 5 80 0
 2505 0024 164B     		ldr	r3, .L195
 2506 0026 1B68     		ldr	r3, [r3]
 2507 0028 FB60     		str	r3, [r7, #12]
 2508 002a 14E0     		b	.L190
 2509              	.L193:
  81:..\ugfx_2.6\src\gdriver/gdriver.c **** 			if (pd->driverchain == driver) {
 2510              		.loc 5 81 0
 2511 002c FB68     		ldr	r3, [r7, #12]
 2512 002e 1A68     		ldr	r2, [r3]
 2513 0030 7B68     		ldr	r3, [r7, #4]
 2514 0032 9A42     		cmp	r2, r3
 2515 0034 0CD1     		bne	.L191
  82:..\ugfx_2.6\src\gdriver/gdriver.c **** 				pd->driverchain = driver->driverchain;
 2516              		.loc 5 82 0
 2517 0036 7B68     		ldr	r3, [r7, #4]
 2518 0038 1A68     		ldr	r2, [r3]
 2519 003a FB68     		ldr	r3, [r7, #12]
 2520 003c 1A60     		str	r2, [r3]
ARM GAS  C:\Users\joel\AppData\Local\Temp\cc53xt53.s 			page 67


  83:..\ugfx_2.6\src\gdriver/gdriver.c **** 				if (!pd->driverchain)
 2521              		.loc 5 83 0
 2522 003e FB68     		ldr	r3, [r7, #12]
 2523 0040 1B68     		ldr	r3, [r3]
 2524 0042 002B     		cmp	r3, #0
 2525 0044 03D1     		bne	.L192
  84:..\ugfx_2.6\src\gdriver/gdriver.c **** 					dtail = pd;
 2526              		.loc 5 84 0
 2527 0046 0F4A     		ldr	r2, .L195+4
 2528 0048 FB68     		ldr	r3, [r7, #12]
 2529 004a 1360     		str	r3, [r2]
  85:..\ugfx_2.6\src\gdriver/gdriver.c **** 				break;
 2530              		.loc 5 85 0
 2531 004c 07E0     		b	.L189
 2532              	.L192:
 2533 004e 06E0     		b	.L189
 2534              	.L191:
  80:..\ugfx_2.6\src\gdriver/gdriver.c **** 			if (pd->driverchain == driver) {
 2535              		.loc 5 80 0 discriminator 2
 2536 0050 FB68     		ldr	r3, [r7, #12]
 2537 0052 1B68     		ldr	r3, [r3]
 2538 0054 FB60     		str	r3, [r7, #12]
 2539              	.L190:
  80:..\ugfx_2.6\src\gdriver/gdriver.c **** 			if (pd->driverchain == driver) {
 2540              		.loc 5 80 0 is_stmt 0 discriminator 1
 2541 0056 FB68     		ldr	r3, [r7, #12]
 2542 0058 1B68     		ldr	r3, [r3]
 2543 005a 002B     		cmp	r3, #0
 2544 005c E6D1     		bne	.L193
 2545              	.L189:
  86:..\ugfx_2.6\src\gdriver/gdriver.c **** 			}
  87:..\ugfx_2.6\src\gdriver/gdriver.c **** 		}
  88:..\ugfx_2.6\src\gdriver/gdriver.c **** 	}
  89:..\ugfx_2.6\src\gdriver/gdriver.c **** 
  90:..\ugfx_2.6\src\gdriver/gdriver.c **** 	// Call the deinit()
  91:..\ugfx_2.6\src\gdriver/gdriver.c **** 	if (driver->vmt->deinit)
 2546              		.loc 5 91 0 is_stmt 1
 2547 005e 7B68     		ldr	r3, [r7, #4]
 2548 0060 5B68     		ldr	r3, [r3, #4]
 2549 0062 1B69     		ldr	r3, [r3, #16]
 2550 0064 002B     		cmp	r3, #0
 2551 0066 04D0     		beq	.L194
  92:..\ugfx_2.6\src\gdriver/gdriver.c **** 		driver->vmt->deinit(driver);
 2552              		.loc 5 92 0
 2553 0068 7B68     		ldr	r3, [r7, #4]
 2554 006a 5B68     		ldr	r3, [r3, #4]
 2555 006c 1B69     		ldr	r3, [r3, #16]
 2556 006e 7868     		ldr	r0, [r7, #4]
 2557 0070 9847     		blx	r3
 2558              	.L194:
  93:..\ugfx_2.6\src\gdriver/gdriver.c **** 
  94:..\ugfx_2.6\src\gdriver/gdriver.c **** 	// Cleanup
  95:..\ugfx_2.6\src\gdriver/gdriver.c **** 	gfxFree(driver);
 2559              		.loc 5 95 0
 2560 0072 7868     		ldr	r0, [r7, #4]
 2561 0074 FFF7FEFF 		bl	gfxFree
 2562              	.L185:
ARM GAS  C:\Users\joel\AppData\Local\Temp\cc53xt53.s 			page 68


  96:..\ugfx_2.6\src\gdriver/gdriver.c **** }
 2563              		.loc 5 96 0
 2564 0078 1037     		adds	r7, r7, #16
 2565              		.cfi_def_cfa_offset 8
 2566 007a BD46     		mov	sp, r7
 2567              		.cfi_def_cfa_register 13
 2568              		@ sp needed
 2569 007c 80BD     		pop	{r7, pc}
 2570              	.L196:
 2571 007e 00BF     		.align	2
 2572              	.L195:
 2573 0080 3C500000 		.word	dhead
 2574 0084 40500000 		.word	dtail
 2575              		.cfi_endproc
 2576              	.LFE38:
 2577              		.size	gdriverUnRegister, .-gdriverUnRegister
 2578              		.section	.text.gdriverGetInstance,"ax",%progbits
 2579              		.align	2
 2580              		.global	gdriverGetInstance
 2581              		.thumb
 2582              		.thumb_func
 2583              		.type	gdriverGetInstance, %function
 2584              	gdriverGetInstance:
 2585              	.LFB39:
  97:..\ugfx_2.6\src\gdriver/gdriver.c **** 
  98:..\ugfx_2.6\src\gdriver/gdriver.c **** GDriver *gdriverGetInstance(uint16_t type, unsigned instance) {
 2586              		.loc 5 98 0
 2587              		.cfi_startproc
 2588              		@ args = 0, pretend = 0, frame = 16
 2589              		@ frame_needed = 1, uses_anonymous_args = 0
 2590              		@ link register save eliminated.
 2591 0000 80B4     		push	{r7}
 2592              		.cfi_def_cfa_offset 4
 2593              		.cfi_offset 7, -4
 2594 0002 85B0     		sub	sp, sp, #20
 2595              		.cfi_def_cfa_offset 24
 2596 0004 00AF     		add	r7, sp, #0
 2597              		.cfi_def_cfa_register 7
 2598 0006 0346     		mov	r3, r0
 2599 0008 3960     		str	r1, [r7]
 2600 000a FB80     		strh	r3, [r7, #6]	@ movhi
  99:..\ugfx_2.6\src\gdriver/gdriver.c **** 	GDriver		*pd;
 100:..\ugfx_2.6\src\gdriver/gdriver.c **** 	unsigned	sinstance;
 101:..\ugfx_2.6\src\gdriver/gdriver.c **** 
 102:..\ugfx_2.6\src\gdriver/gdriver.c **** 	// Loop to find the system instance
 103:..\ugfx_2.6\src\gdriver/gdriver.c **** 	sinstance = 0;
 2601              		.loc 5 103 0
 2602 000c 0023     		movs	r3, #0
 2603 000e BB60     		str	r3, [r7, #8]
 104:..\ugfx_2.6\src\gdriver/gdriver.c **** 	for(pd = dhead; pd; pd = pd->driverchain) {
 2604              		.loc 5 104 0
 2605 0010 0F4B     		ldr	r3, .L203
 2606 0012 1B68     		ldr	r3, [r3]
 2607 0014 FB60     		str	r3, [r7, #12]
 2608 0016 11E0     		b	.L198
 2609              	.L202:
 105:..\ugfx_2.6\src\gdriver/gdriver.c **** 		if (pd->vmt->type == type) {
ARM GAS  C:\Users\joel\AppData\Local\Temp\cc53xt53.s 			page 69


 2610              		.loc 5 105 0
 2611 0018 FB68     		ldr	r3, [r7, #12]
 2612 001a 5B68     		ldr	r3, [r3, #4]
 2613 001c 1B88     		ldrh	r3, [r3]
 2614 001e FA88     		ldrh	r2, [r7, #6]
 2615 0020 9A42     		cmp	r2, r3
 2616 0022 08D1     		bne	.L199
 106:..\ugfx_2.6\src\gdriver/gdriver.c **** 			if (sinstance == instance)
 2617              		.loc 5 106 0
 2618 0024 BA68     		ldr	r2, [r7, #8]
 2619 0026 3B68     		ldr	r3, [r7]
 2620 0028 9A42     		cmp	r2, r3
 2621 002a 01D1     		bne	.L200
 107:..\ugfx_2.6\src\gdriver/gdriver.c **** 				return pd;
 2622              		.loc 5 107 0
 2623 002c FB68     		ldr	r3, [r7, #12]
 2624 002e 09E0     		b	.L201
 2625              	.L200:
 108:..\ugfx_2.6\src\gdriver/gdriver.c **** 			sinstance++;
 2626              		.loc 5 108 0
 2627 0030 BB68     		ldr	r3, [r7, #8]
 2628 0032 0133     		adds	r3, r3, #1
 2629 0034 BB60     		str	r3, [r7, #8]
 2630              	.L199:
 104:..\ugfx_2.6\src\gdriver/gdriver.c **** 		if (pd->vmt->type == type) {
 2631              		.loc 5 104 0 discriminator 2
 2632 0036 FB68     		ldr	r3, [r7, #12]
 2633 0038 1B68     		ldr	r3, [r3]
 2634 003a FB60     		str	r3, [r7, #12]
 2635              	.L198:
 104:..\ugfx_2.6\src\gdriver/gdriver.c **** 		if (pd->vmt->type == type) {
 2636              		.loc 5 104 0 is_stmt 0 discriminator 1
 2637 003c FB68     		ldr	r3, [r7, #12]
 2638 003e 002B     		cmp	r3, #0
 2639 0040 EAD1     		bne	.L202
 109:..\ugfx_2.6\src\gdriver/gdriver.c **** 		}
 110:..\ugfx_2.6\src\gdriver/gdriver.c **** 	}
 111:..\ugfx_2.6\src\gdriver/gdriver.c **** 	return 0;
 2640              		.loc 5 111 0 is_stmt 1
 2641 0042 0023     		movs	r3, #0
 2642              	.L201:
 112:..\ugfx_2.6\src\gdriver/gdriver.c **** }
 2643              		.loc 5 112 0
 2644 0044 1846     		mov	r0, r3
 2645 0046 1437     		adds	r7, r7, #20
 2646              		.cfi_def_cfa_offset 4
 2647 0048 BD46     		mov	sp, r7
 2648              		.cfi_def_cfa_register 13
 2649              		@ sp needed
 2650 004a 5DF8047B 		ldr	r7, [sp], #4
 2651              		.cfi_restore 7
 2652              		.cfi_def_cfa_offset 0
 2653 004e 7047     		bx	lr
 2654              	.L204:
 2655              		.align	2
 2656              	.L203:
 2657 0050 3C500000 		.word	dhead
ARM GAS  C:\Users\joel\AppData\Local\Temp\cc53xt53.s 			page 70


 2658              		.cfi_endproc
 2659              	.LFE39:
 2660              		.size	gdriverGetInstance, .-gdriverGetInstance
 2661              		.section	.text.gdriverInstanceCount,"ax",%progbits
 2662              		.align	2
 2663              		.global	gdriverInstanceCount
 2664              		.thumb
 2665              		.thumb_func
 2666              		.type	gdriverInstanceCount, %function
 2667              	gdriverInstanceCount:
 2668              	.LFB40:
 113:..\ugfx_2.6\src\gdriver/gdriver.c **** 
 114:..\ugfx_2.6\src\gdriver/gdriver.c **** unsigned gdriverInstanceCount(uint16_t type) {
 2669              		.loc 5 114 0
 2670              		.cfi_startproc
 2671              		@ args = 0, pretend = 0, frame = 16
 2672              		@ frame_needed = 1, uses_anonymous_args = 0
 2673              		@ link register save eliminated.
 2674 0000 80B4     		push	{r7}
 2675              		.cfi_def_cfa_offset 4
 2676              		.cfi_offset 7, -4
 2677 0002 85B0     		sub	sp, sp, #20
 2678              		.cfi_def_cfa_offset 24
 2679 0004 00AF     		add	r7, sp, #0
 2680              		.cfi_def_cfa_register 7
 2681 0006 0346     		mov	r3, r0
 2682 0008 FB80     		strh	r3, [r7, #6]	@ movhi
 115:..\ugfx_2.6\src\gdriver/gdriver.c **** 	GDriver		*pd;
 116:..\ugfx_2.6\src\gdriver/gdriver.c **** 	unsigned	sinstance;
 117:..\ugfx_2.6\src\gdriver/gdriver.c **** 
 118:..\ugfx_2.6\src\gdriver/gdriver.c **** 	// Loop to count the system instances
 119:..\ugfx_2.6\src\gdriver/gdriver.c **** 	sinstance = 0;
 2683              		.loc 5 119 0
 2684 000a 0023     		movs	r3, #0
 2685 000c BB60     		str	r3, [r7, #8]
 120:..\ugfx_2.6\src\gdriver/gdriver.c **** 	for(pd = dhead; pd; pd = pd->driverchain) {
 2686              		.loc 5 120 0
 2687 000e 0D4B     		ldr	r3, .L210
 2688 0010 1B68     		ldr	r3, [r3]
 2689 0012 FB60     		str	r3, [r7, #12]
 2690 0014 0BE0     		b	.L206
 2691              	.L208:
 121:..\ugfx_2.6\src\gdriver/gdriver.c **** 		if (pd->vmt->type == type)
 2692              		.loc 5 121 0
 2693 0016 FB68     		ldr	r3, [r7, #12]
 2694 0018 5B68     		ldr	r3, [r3, #4]
 2695 001a 1B88     		ldrh	r3, [r3]
 2696 001c FA88     		ldrh	r2, [r7, #6]
 2697 001e 9A42     		cmp	r2, r3
 2698 0020 02D1     		bne	.L207
 122:..\ugfx_2.6\src\gdriver/gdriver.c **** 			sinstance++;
 2699              		.loc 5 122 0
 2700 0022 BB68     		ldr	r3, [r7, #8]
 2701 0024 0133     		adds	r3, r3, #1
 2702 0026 BB60     		str	r3, [r7, #8]
 2703              	.L207:
 120:..\ugfx_2.6\src\gdriver/gdriver.c **** 	for(pd = dhead; pd; pd = pd->driverchain) {
ARM GAS  C:\Users\joel\AppData\Local\Temp\cc53xt53.s 			page 71


 2704              		.loc 5 120 0 discriminator 2
 2705 0028 FB68     		ldr	r3, [r7, #12]
 2706 002a 1B68     		ldr	r3, [r3]
 2707 002c FB60     		str	r3, [r7, #12]
 2708              	.L206:
 120:..\ugfx_2.6\src\gdriver/gdriver.c **** 	for(pd = dhead; pd; pd = pd->driverchain) {
 2709              		.loc 5 120 0 is_stmt 0 discriminator 1
 2710 002e FB68     		ldr	r3, [r7, #12]
 2711 0030 002B     		cmp	r3, #0
 2712 0032 F0D1     		bne	.L208
 123:..\ugfx_2.6\src\gdriver/gdriver.c **** 	}
 124:..\ugfx_2.6\src\gdriver/gdriver.c **** 	return sinstance;
 2713              		.loc 5 124 0 is_stmt 1
 2714 0034 BB68     		ldr	r3, [r7, #8]
 125:..\ugfx_2.6\src\gdriver/gdriver.c **** }
 2715              		.loc 5 125 0
 2716 0036 1846     		mov	r0, r3
 2717 0038 1437     		adds	r7, r7, #20
 2718              		.cfi_def_cfa_offset 4
 2719 003a BD46     		mov	sp, r7
 2720              		.cfi_def_cfa_register 13
 2721              		@ sp needed
 2722 003c 5DF8047B 		ldr	r7, [sp], #4
 2723              		.cfi_restore 7
 2724              		.cfi_def_cfa_offset 0
 2725 0040 7047     		bx	lr
 2726              	.L211:
 2727 0042 00BF     		.align	2
 2728              	.L210:
 2729 0044 3C500000 		.word	dhead
 2730              		.cfi_endproc
 2731              	.LFE40:
 2732              		.size	gdriverInstanceCount, .-gdriverInstanceCount
 2733              		.section	.text.gdriverGetNext,"ax",%progbits
 2734              		.align	2
 2735              		.global	gdriverGetNext
 2736              		.thumb
 2737              		.thumb_func
 2738              		.type	gdriverGetNext, %function
 2739              	gdriverGetNext:
 2740              	.LFB41:
 126:..\ugfx_2.6\src\gdriver/gdriver.c **** 
 127:..\ugfx_2.6\src\gdriver/gdriver.c **** GDriver *gdriverGetNext(uint16_t type, GDriver *driver) {
 2741              		.loc 5 127 0
 2742              		.cfi_startproc
 2743              		@ args = 0, pretend = 0, frame = 8
 2744              		@ frame_needed = 1, uses_anonymous_args = 0
 2745              		@ link register save eliminated.
 2746 0000 80B4     		push	{r7}
 2747              		.cfi_def_cfa_offset 4
 2748              		.cfi_offset 7, -4
 2749 0002 83B0     		sub	sp, sp, #12
 2750              		.cfi_def_cfa_offset 16
 2751 0004 00AF     		add	r7, sp, #0
 2752              		.cfi_def_cfa_register 7
 2753 0006 0346     		mov	r3, r0
 2754 0008 3960     		str	r1, [r7]
ARM GAS  C:\Users\joel\AppData\Local\Temp\cc53xt53.s 			page 72


 2755 000a FB80     		strh	r3, [r7, #6]	@ movhi
 128:..\ugfx_2.6\src\gdriver/gdriver.c **** 	driver = driver ? driver->driverchain : dhead;
 2756              		.loc 5 128 0
 2757 000c 3B68     		ldr	r3, [r7]
 2758 000e 002B     		cmp	r3, #0
 2759 0010 02D0     		beq	.L213
 2760              		.loc 5 128 0 is_stmt 0 discriminator 1
 2761 0012 3B68     		ldr	r3, [r7]
 2762 0014 1B68     		ldr	r3, [r3]
 2763 0016 01E0     		b	.L214
 2764              	.L213:
 2765              		.loc 5 128 0 discriminator 2
 2766 0018 0B4B     		ldr	r3, .L219
 2767 001a 1B68     		ldr	r3, [r3]
 2768              	.L214:
 2769              		.loc 5 128 0 discriminator 4
 2770 001c 3B60     		str	r3, [r7]
 129:..\ugfx_2.6\src\gdriver/gdriver.c **** 
 130:..\ugfx_2.6\src\gdriver/gdriver.c **** 	while(driver && driver->vmt->type != type)
 2771              		.loc 5 130 0 is_stmt 1 discriminator 4
 2772 001e 02E0     		b	.L215
 2773              	.L217:
 131:..\ugfx_2.6\src\gdriver/gdriver.c **** 		driver = driver->driverchain;
 2774              		.loc 5 131 0
 2775 0020 3B68     		ldr	r3, [r7]
 2776 0022 1B68     		ldr	r3, [r3]
 2777 0024 3B60     		str	r3, [r7]
 2778              	.L215:
 130:..\ugfx_2.6\src\gdriver/gdriver.c **** 		driver = driver->driverchain;
 2779              		.loc 5 130 0
 2780 0026 3B68     		ldr	r3, [r7]
 2781 0028 002B     		cmp	r3, #0
 2782 002a 05D0     		beq	.L216
 130:..\ugfx_2.6\src\gdriver/gdriver.c **** 		driver = driver->driverchain;
 2783              		.loc 5 130 0 is_stmt 0 discriminator 1
 2784 002c 3B68     		ldr	r3, [r7]
 2785 002e 5B68     		ldr	r3, [r3, #4]
 2786 0030 1B88     		ldrh	r3, [r3]
 2787 0032 FA88     		ldrh	r2, [r7, #6]
 2788 0034 9A42     		cmp	r2, r3
 2789 0036 F3D1     		bne	.L217
 2790              	.L216:
 132:..\ugfx_2.6\src\gdriver/gdriver.c **** 
 133:..\ugfx_2.6\src\gdriver/gdriver.c **** 	return driver;
 2791              		.loc 5 133 0 is_stmt 1
 2792 0038 3B68     		ldr	r3, [r7]
 134:..\ugfx_2.6\src\gdriver/gdriver.c **** }
 2793              		.loc 5 134 0
 2794 003a 1846     		mov	r0, r3
 2795 003c 0C37     		adds	r7, r7, #12
 2796              		.cfi_def_cfa_offset 4
 2797 003e BD46     		mov	sp, r7
 2798              		.cfi_def_cfa_register 13
 2799              		@ sp needed
 2800 0040 5DF8047B 		ldr	r7, [sp], #4
 2801              		.cfi_restore 7
 2802              		.cfi_def_cfa_offset 0
ARM GAS  C:\Users\joel\AppData\Local\Temp\cc53xt53.s 			page 73


 2803 0044 7047     		bx	lr
 2804              	.L220:
 2805 0046 00BF     		.align	2
 2806              	.L219:
 2807 0048 3C500000 		.word	dhead
 2808              		.cfi_endproc
 2809              	.LFE41:
 2810              		.size	gdriverGetNext, .-gdriverGetNext
 2811              		.section	.text.gdriverGetDriverInstanceNumber,"ax",%progbits
 2812              		.align	2
 2813              		.global	gdriverGetDriverInstanceNumber
 2814              		.thumb
 2815              		.thumb_func
 2816              		.type	gdriverGetDriverInstanceNumber, %function
 2817              	gdriverGetDriverInstanceNumber:
 2818              	.LFB42:
 135:..\ugfx_2.6\src\gdriver/gdriver.c **** 
 136:..\ugfx_2.6\src\gdriver/gdriver.c **** unsigned gdriverGetDriverInstanceNumber(GDriver *driver) {
 2819              		.loc 5 136 0
 2820              		.cfi_startproc
 2821              		@ args = 0, pretend = 0, frame = 16
 2822              		@ frame_needed = 1, uses_anonymous_args = 0
 2823              		@ link register save eliminated.
 2824 0000 80B4     		push	{r7}
 2825              		.cfi_def_cfa_offset 4
 2826              		.cfi_offset 7, -4
 2827 0002 85B0     		sub	sp, sp, #20
 2828              		.cfi_def_cfa_offset 24
 2829 0004 00AF     		add	r7, sp, #0
 2830              		.cfi_def_cfa_register 7
 2831 0006 7860     		str	r0, [r7, #4]
 137:..\ugfx_2.6\src\gdriver/gdriver.c **** 	GDriver		*pd;
 138:..\ugfx_2.6\src\gdriver/gdriver.c **** 	unsigned	instance;
 139:..\ugfx_2.6\src\gdriver/gdriver.c **** 
 140:..\ugfx_2.6\src\gdriver/gdriver.c **** 	// Loop to find the system instance
 141:..\ugfx_2.6\src\gdriver/gdriver.c **** 	instance = 0;
 2832              		.loc 5 141 0
 2833 0008 0023     		movs	r3, #0
 2834 000a BB60     		str	r3, [r7, #8]
 142:..\ugfx_2.6\src\gdriver/gdriver.c **** 	for(pd = dhead; pd; pd = pd->driverchain) {
 2835              		.loc 5 142 0
 2836 000c 114B     		ldr	r3, .L227
 2837 000e 1B68     		ldr	r3, [r3]
 2838 0010 FB60     		str	r3, [r7, #12]
 2839 0012 13E0     		b	.L222
 2840              	.L226:
 143:..\ugfx_2.6\src\gdriver/gdriver.c **** 		if (pd == driver)
 2841              		.loc 5 143 0
 2842 0014 FA68     		ldr	r2, [r7, #12]
 2843 0016 7B68     		ldr	r3, [r7, #4]
 2844 0018 9A42     		cmp	r2, r3
 2845 001a 01D1     		bne	.L223
 144:..\ugfx_2.6\src\gdriver/gdriver.c **** 			return instance;
 2846              		.loc 5 144 0
 2847 001c BB68     		ldr	r3, [r7, #8]
 2848 001e 12E0     		b	.L224
 2849              	.L223:
ARM GAS  C:\Users\joel\AppData\Local\Temp\cc53xt53.s 			page 74


 145:..\ugfx_2.6\src\gdriver/gdriver.c **** 		if (pd->vmt->type == driver->vmt->type)
 2850              		.loc 5 145 0
 2851 0020 FB68     		ldr	r3, [r7, #12]
 2852 0022 5B68     		ldr	r3, [r3, #4]
 2853 0024 1A88     		ldrh	r2, [r3]
 2854 0026 7B68     		ldr	r3, [r7, #4]
 2855 0028 5B68     		ldr	r3, [r3, #4]
 2856 002a 1B88     		ldrh	r3, [r3]
 2857 002c 9A42     		cmp	r2, r3
 2858 002e 02D1     		bne	.L225
 146:..\ugfx_2.6\src\gdriver/gdriver.c **** 			instance++;
 2859              		.loc 5 146 0
 2860 0030 BB68     		ldr	r3, [r7, #8]
 2861 0032 0133     		adds	r3, r3, #1
 2862 0034 BB60     		str	r3, [r7, #8]
 2863              	.L225:
 142:..\ugfx_2.6\src\gdriver/gdriver.c **** 		if (pd == driver)
 2864              		.loc 5 142 0 discriminator 2
 2865 0036 FB68     		ldr	r3, [r7, #12]
 2866 0038 1B68     		ldr	r3, [r3]
 2867 003a FB60     		str	r3, [r7, #12]
 2868              	.L222:
 142:..\ugfx_2.6\src\gdriver/gdriver.c **** 		if (pd == driver)
 2869              		.loc 5 142 0 is_stmt 0 discriminator 1
 2870 003c FB68     		ldr	r3, [r7, #12]
 2871 003e 002B     		cmp	r3, #0
 2872 0040 E8D1     		bne	.L226
 147:..\ugfx_2.6\src\gdriver/gdriver.c **** 	}
 148:..\ugfx_2.6\src\gdriver/gdriver.c **** 	return (unsigned)-1;
 2873              		.loc 5 148 0 is_stmt 1
 2874 0042 4FF0FF33 		mov	r3, #-1
 2875              	.L224:
 149:..\ugfx_2.6\src\gdriver/gdriver.c **** }
 2876              		.loc 5 149 0
 2877 0046 1846     		mov	r0, r3
 2878 0048 1437     		adds	r7, r7, #20
 2879              		.cfi_def_cfa_offset 4
 2880 004a BD46     		mov	sp, r7
 2881              		.cfi_def_cfa_register 13
 2882              		@ sp needed
 2883 004c 5DF8047B 		ldr	r7, [sp], #4
 2884              		.cfi_restore 7
 2885              		.cfi_def_cfa_offset 0
 2886 0050 7047     		bx	lr
 2887              	.L228:
 2888 0052 00BF     		.align	2
 2889              	.L227:
 2890 0054 3C500000 		.word	dhead
 2891              		.cfi_endproc
 2892              	.LFE42:
 2893              		.size	gdriverGetDriverInstanceNumber, .-gdriverGetDriverInstanceNumber
 2894              		.section	.rodata
 2895              		.align	2
 2896              		.type	mf_rlefont_DejaVuSans16_aa_dictionary_data, %object
 2897              		.size	mf_rlefont_DejaVuSans16_aa_dictionary_data, 425
 2898              	mf_rlefont_DejaVuSans16_aa_dictionary_data:
 2899 0000 02       		.byte	2
ARM GAS  C:\Users\joel\AppData\Local\Temp\cc53xt53.s 			page 75


 2900 0001 07       		.byte	7
 2901 0002 05       		.byte	5
 2902 0003 16       		.byte	22
 2903 0004 0A       		.byte	10
 2904 0005 80       		.byte	-128
 2905 0006 02       		.byte	2
 2906 0007 09       		.byte	9
 2907 0008 04       		.byte	4
 2908 0009 11       		.byte	17
 2909 000a 10       		.byte	16
 2910 000b 0A       		.byte	10
 2911 000c 08       		.byte	8
 2912 000d 01       		.byte	1
 2913 000e 80       		.byte	-128
 2914 000f 04       		.byte	4
 2915 0010 80       		.byte	-128
 2916 0011 08       		.byte	8
 2917 0012 80       		.byte	-128
 2918 0013 40       		.byte	64
 2919 0014 08       		.byte	8
 2920 0015 86       		.byte	-122
 2921 0016 14       		.byte	20
 2922 0017 80       		.byte	-128
 2923 0018 01       		.byte	1
 2924 0019 80       		.byte	-128
 2925 001a 11       		.byte	17
 2926 001b 80       		.byte	-128
 2927 001c 11       		.byte	17
 2928 001d 80       		.byte	-128
 2929 001e C1       		.byte	-63
 2930 001f 80       		.byte	-128
 2931 0020 C3       		.byte	-61
 2932 0021 CB       		.byte	-53
 2933 0022 DE       		.byte	-34
 2934 0023 88       		.byte	-120
 2935 0024 85       		.byte	-123
 2936 0025 80       		.byte	-128
 2937 0026 0E       		.byte	14
 2938 0027 01       		.byte	1
 2939 0028 C1       		.byte	-63
 2940 0029 07       		.byte	7
 2941 002a C7       		.byte	-57
 2942 002b C9       		.byte	-55
 2943 002c 07       		.byte	7
 2944 002d 80       		.byte	-128
 2945 002e 03       		.byte	3
 2946 002f CA       		.byte	-54
 2947 0030 C7       		.byte	-57
 2948 0031 CC       		.byte	-52
 2949 0032 C4       		.byte	-60
 2950 0033 01       		.byte	1
 2951 0034 C7       		.byte	-57
 2952 0035 C8       		.byte	-56
 2953 0036 CB       		.byte	-53
 2954 0037 C4       		.byte	-60
 2955 0038 CD       		.byte	-51
 2956 0039 C8       		.byte	-56
ARM GAS  C:\Users\joel\AppData\Local\Temp\cc53xt53.s 			page 76


 2957 003a CE       		.byte	-50
 2958 003b C2       		.byte	-62
 2959 003c CD       		.byte	-51
 2960 003d C2       		.byte	-62
 2961 003e CA       		.byte	-54
 2962 003f C6       		.byte	-58
 2963 0040 C3       		.byte	-61
 2964 0041 CA       		.byte	-54
 2965 0042 C5       		.byte	-59
 2966 0043 CC       		.byte	-52
 2967 0044 C7       		.byte	-57
 2968 0045 CA       		.byte	-54
 2969 0046 CC       		.byte	-52
 2970 0047 C1       		.byte	-63
 2971 0048 CA       		.byte	-54
 2972 0049 C2       		.byte	-62
 2973 004a CE       		.byte	-50
 2974 004b C5       		.byte	-59
 2975 004c 81       		.byte	-127
 2976 004d C7       		.byte	-57
 2977 004e CD       		.byte	-51
 2978 004f C9       		.byte	-55
 2979 0050 C5       		.byte	-59
 2980 0051 02       		.byte	2
 2981 0052 80       		.byte	-128
 2982 0053 D1       		.byte	-47
 2983 0054 C6       		.byte	-58
 2984 0055 C8       		.byte	-56
 2985 0056 CA       		.byte	-54
 2986 0057 C5       		.byte	-59
 2987 0058 CD       		.byte	-51
 2988 0059 0C       		.byte	12
 2989 005a 80       		.byte	-128
 2990 005b CD       		.byte	-51
 2991 005c C2       		.byte	-62
 2992 005d 80       		.byte	-128
 2993 005e CE       		.byte	-50
 2994 005f 80       		.byte	-128
 2995 0060 C6       		.byte	-58
 2996 0061 CD       		.byte	-51
 2997 0062 C9       		.byte	-55
 2998 0063 CD       		.byte	-51
 2999 0064 80       		.byte	-128
 3000 0065 C2       		.byte	-62
 3001 0066 82       		.byte	-126
 3002 0067 CB       		.byte	-53
 3003 0068 C6       		.byte	-58
 3004 0069 C3       		.byte	-61
 3005 006a CD       		.byte	-51
 3006 006b C4       		.byte	-60
 3007 006c CA       		.byte	-54
 3008 006d CE       		.byte	-50
 3009 006e 0F       		.byte	15
 3010 006f CE       		.byte	-50
 3011 0070 C3       		.byte	-61
 3012 0071 CC       		.byte	-52
 3013 0072 C5       		.byte	-59
ARM GAS  C:\Users\joel\AppData\Local\Temp\cc53xt53.s 			page 77


 3014 0073 01       		.byte	1
 3015 0074 C6       		.byte	-58
 3016 0075 CA       		.byte	-54
 3017 0076 80       		.byte	-128
 3018 0077 02       		.byte	2
 3019 0078 C1       		.byte	-63
 3020 0079 CD       		.byte	-51
 3021 007a 0E       		.byte	14
 3022 007b C4       		.byte	-60
 3023 007c CC       		.byte	-52
 3024 007d CC       		.byte	-52
 3025 007e C3       		.byte	-61
 3026 007f 01       		.byte	1
 3027 0080 C7       		.byte	-57
 3028 0081 80       		.byte	-128
 3029 0082 80       		.byte	-128
 3030 0083 C1       		.byte	-63
 3031 0084 C8       		.byte	-56
 3032 0085 C9       		.byte	-55
 3033 0086 80       		.byte	-128
 3034 0087 CE       		.byte	-50
 3035 0088 C6       		.byte	-58
 3036 0089 CC       		.byte	-52
 3037 008a 80       		.byte	-128
 3038 008b 11       		.byte	17
 3039 008c 80       		.byte	-128
 3040 008d CA       		.byte	-54
 3041 008e C4       		.byte	-60
 3042 008f 80       		.byte	-128
 3043 0090 C7       		.byte	-57
 3044 0091 C2       		.byte	-62
 3045 0092 CE       		.byte	-50
 3046 0093 01       		.byte	1
 3047 0094 C2       		.byte	-62
 3048 0095 CE       		.byte	-50
 3049 0096 C6       		.byte	-58
 3050 0097 C2       		.byte	-62
 3051 0098 CD       		.byte	-51
 3052 0099 C4       		.byte	-60
 3053 009a CB       		.byte	-53
 3054 009b 28       		.byte	40
 3055 009c 15       		.byte	21
 3056 009d D1       		.byte	-47
 3057 009e C9       		.byte	-55
 3058 009f C7       		.byte	-57
 3059 00a0 CC       		.byte	-52
 3060 00a1 C7       		.byte	-57
 3061 00a2 14       		.byte	20
 3062 00a3 80       		.byte	-128
 3063 00a4 D8       		.byte	-40
 3064 00a5 C9       		.byte	-55
 3065 00a6 CA       		.byte	-54
 3066 00a7 CD       		.byte	-51
 3067 00a8 C3       		.byte	-61
 3068 00a9 CD       		.byte	-51
 3069 00aa C4       		.byte	-60
 3070 00ab C6       		.byte	-58
ARM GAS  C:\Users\joel\AppData\Local\Temp\cc53xt53.s 			page 78


 3071 00ac 80       		.byte	-128
 3072 00ad C6       		.byte	-58
 3073 00ae C1       		.byte	-63
 3074 00af C2       		.byte	-62
 3075 00b0 CC       		.byte	-52
 3076 00b1 C6       		.byte	-58
 3077 00b2 C7       		.byte	-57
 3078 00b3 01       		.byte	1
 3079 00b4 C7       		.byte	-57
 3080 00b5 C6       		.byte	-58
 3081 00b6 C9       		.byte	-55
 3082 00b7 03       		.byte	3
 3083 00b8 C8       		.byte	-56
 3084 00b9 CD       		.byte	-51
 3085 00ba CE       		.byte	-50
 3086 00bb C1       		.byte	-63
 3087 00bc C5       		.byte	-59
 3088 00bd CB       		.byte	-53
 3089 00be DE       		.byte	-34
 3090 00bf CA       		.byte	-54
 3091 00c0 C8       		.byte	-56
 3092 00c1 CB       		.byte	-53
 3093 00c2 C5       		.byte	-59
 3094 00c3 0B       		.byte	11
 3095 00c4 C6       		.byte	-58
 3096 00c5 CB       		.byte	-53
 3097 00c6 CE       		.byte	-50
 3098 00c7 CB       		.byte	-53
 3099 00c8 0D       		.byte	13
 3100 00c9 C3       		.byte	-61
 3101 00ca CC       		.byte	-52
 3102 00cb C7       		.byte	-57
 3103 00cc CC       		.byte	-52
 3104 00cd C4       		.byte	-60
 3105 00ce CD       		.byte	-51
 3106 00cf 05       		.byte	5
 3107 00d0 80       		.byte	-128
 3108 00d1 C1       		.byte	-63
 3109 00d2 CE       		.byte	-50
 3110 00d3 80       		.byte	-128
 3111 00d4 0A       		.byte	10
 3112 00d5 2A       		.byte	42
 3113 00d6 1F       		.byte	31
 3114 00d7 2A       		.byte	42
 3115 00d8 1E       		.byte	30
 3116 00d9 87       		.byte	-121
 3117 00da 1D       		.byte	29
 3118 00db 26       		.byte	38
 3119 00dc 44       		.byte	68
 3120 00dd 38       		.byte	56
 3121 00de 19       		.byte	25
 3122 00df 6C       		.byte	108
 3123 00e0 31       		.byte	49
 3124 00e1 71       		.byte	113
 3125 00e2 19       		.byte	25
 3126 00e3 51       		.byte	81
 3127 00e4 18       		.byte	24
ARM GAS  C:\Users\joel\AppData\Local\Temp\cc53xt53.s 			page 79


 3128 00e5 86       		.byte	-122
 3129 00e6 22       		.byte	34
 3130 00e7 87       		.byte	-121
 3131 00e8 18       		.byte	24
 3132 00e9 86       		.byte	-122
 3133 00ea 22       		.byte	34
 3134 00eb 87       		.byte	-121
 3135 00ec 19       		.byte	25
 3136 00ed 71       		.byte	113
 3137 00ee 19       		.byte	25
 3138 00ef 51       		.byte	81
 3139 00f0 19       		.byte	25
 3140 00f1 6C       		.byte	108
 3141 00f2 25       		.byte	37
 3142 00f3 25       		.byte	37
 3143 00f4 25       		.byte	37
 3144 00f5 25       		.byte	37
 3145 00f6 23       		.byte	35
 3146 00f7 1C       		.byte	28
 3147 00f8 1E       		.byte	30
 3148 00f9 88       		.byte	-120
 3149 00fa 1B       		.byte	27
 3150 00fb 3B       		.byte	59
 3151 00fc 0E       		.byte	14
 3152 00fd 5F       		.byte	95
 3153 00fe 0A       		.byte	10
 3154 00ff 03       		.byte	3
 3155 0100 21       		.byte	33
 3156 0101 05       		.byte	5
 3157 0102 0E       		.byte	14
 3158 0103 07       		.byte	7
 3159 0104 02       		.byte	2
 3160 0105 65       		.byte	101
 3161 0106 06       		.byte	6
 3162 0107 40       		.byte	64
 3163 0108 19       		.byte	25
 3164 0109 65       		.byte	101
 3165 010a 54       		.byte	84
 3166 010b 1A       		.byte	26
 3167 010c 7F       		.byte	127
 3168 010d 09       		.byte	9
 3169 010e 1D       		.byte	29
 3170 010f 25       		.byte	37
 3171 0110 1F       		.byte	31
 3172 0111 2A       		.byte	42
 3173 0112 01       		.byte	1
 3174 0113 7A       		.byte	122
 3175 0114 00       		.byte	0
 3176 0115 09       		.byte	9
 3177 0116 01       		.byte	1
 3178 0117 88       		.byte	-120
 3179 0118 64       		.byte	100
 3180 0119 07       		.byte	7
 3181 011a 6B       		.byte	107
 3182 011b 3D       		.byte	61
 3183 011c 88       		.byte	-120
 3184 011d 33       		.byte	51
ARM GAS  C:\Users\joel\AppData\Local\Temp\cc53xt53.s 			page 80


 3185 011e 1E       		.byte	30
 3186 011f 08       		.byte	8
 3187 0120 88       		.byte	-120
 3188 0121 38       		.byte	56
 3189 0122 78       		.byte	120
 3190 0123 65       		.byte	101
 3191 0124 88       		.byte	-120
 3192 0125 C5       		.byte	-59
 3193 0126 30       		.byte	48
 3194 0127 88       		.byte	-120
 3195 0128 38       		.byte	56
 3196 0129 78       		.byte	120
 3197 012a 65       		.byte	101
 3198 012b 88       		.byte	-120
 3199 012c 33       		.byte	51
 3200 012d 1E       		.byte	30
 3201 012e 5C       		.byte	92
 3202 012f 1D       		.byte	29
 3203 0130 65       		.byte	101
 3204 0131 66       		.byte	102
 3205 0132 6B       		.byte	107
 3206 0133 56       		.byte	86
 3207 0134 0F       		.byte	15
 3208 0135 7F       		.byte	127
 3209 0136 2C       		.byte	44
 3210 0137 09       		.byte	9
 3211 0138 01       		.byte	1
 3212 0139 57       		.byte	87
 3213 013a 00       		.byte	0
 3214 013b C8       		.byte	-56
 3215 013c 05       		.byte	5
 3216 013d 18       		.byte	24
 3217 013e 25       		.byte	37
 3218 013f 08       		.byte	8
 3219 0140 1E       		.byte	30
 3220 0141 5A       		.byte	90
 3221 0142 21       		.byte	33
 3222 0143 4E       		.byte	78
 3223 0144 1E       		.byte	30
 3224 0145 87       		.byte	-121
 3225 0146 1C       		.byte	28
 3226 0147 24       		.byte	36
 3227 0148 1C       		.byte	28
 3228 0149 24       		.byte	36
 3229 014a 1C       		.byte	28
 3230 014b 24       		.byte	36
 3231 014c 1C       		.byte	28
 3232 014d 24       		.byte	36
 3233 014e 1C       		.byte	28
 3234 014f 24       		.byte	36
 3235 0150 26       		.byte	38
 3236 0151 6E       		.byte	110
 3237 0152 1F       		.byte	31
 3238 0153 2A       		.byte	42
 3239 0154 86       		.byte	-122
 3240 0155 86       		.byte	-122
 3241 0156 86       		.byte	-122
ARM GAS  C:\Users\joel\AppData\Local\Temp\cc53xt53.s 			page 81


 3242 0157 00       		.byte	0
 3243 0158 42       		.byte	66
 3244 0159 49       		.byte	73
 3245 015a 06       		.byte	6
 3246 015b 78       		.byte	120
 3247 015c 25       		.byte	37
 3248 015d 09       		.byte	9
 3249 015e 08       		.byte	8
 3250 015f 02       		.byte	2
 3251 0160 01       		.byte	1
 3252 0161 85       		.byte	-123
 3253 0162 1F       		.byte	31
 3254 0163 61       		.byte	97
 3255 0164 78       		.byte	120
 3256 0165 09       		.byte	9
 3257 0166 0E       		.byte	14
 3258 0167 81       		.byte	-127
 3259 0168 03       		.byte	3
 3260 0169 78       		.byte	120
 3261 016a 25       		.byte	37
 3262 016b 33       		.byte	51
 3263 016c 6B       		.byte	107
 3264 016d 07       		.byte	7
 3265 016e 38       		.byte	56
 3266 016f 21       		.byte	33
 3267 0170 63       		.byte	99
 3268 0171 1E       		.byte	30
 3269 0172 3D       		.byte	61
 3270 0173 21       		.byte	33
 3271 0174 4E       		.byte	78
 3272 0175 1E       		.byte	30
 3273 0176 64       		.byte	100
 3274 0177 21       		.byte	33
 3275 0178 C5       		.byte	-59
 3276 0179 30       		.byte	48
 3277 017a 88       		.byte	-120
 3278 017b 4E       		.byte	78
 3279 017c 1E       		.byte	30
 3280 017d 64       		.byte	100
 3281 017e 21       		.byte	33
 3282 017f 63       		.byte	99
 3283 0180 1E       		.byte	30
 3284 0181 3D       		.byte	61
 3285 0182 18       		.byte	24
 3286 0183 25       		.byte	37
 3287 0184 3A       		.byte	58
 3288 0185 45       		.byte	69
 3289 0186 38       		.byte	56
 3290 0187 21       		.byte	33
 3291 0188 5D       		.byte	93
 3292 0189 09       		.byte	9
 3293 018a 0E       		.byte	14
 3294 018b 81       		.byte	-127
 3295 018c 03       		.byte	3
 3296 018d 7F       		.byte	127
 3297 018e 87       		.byte	-121
 3298 018f 20       		.byte	32
ARM GAS  C:\Users\joel\AppData\Local\Temp\cc53xt53.s 			page 82


 3299 0190 1D       		.byte	29
 3300 0191 25       		.byte	37
 3301 0192 20       		.byte	32
 3302 0193 1C       		.byte	28
 3303 0194 78       		.byte	120
 3304 0195 85       		.byte	-123
 3305 0196 59       		.byte	89
 3306 0197 30       		.byte	48
 3307 0198 19       		.byte	25
 3308 0199 C8       		.byte	-56
 3309 019a 1F       		.byte	31
 3310 019b BC       		.byte	-68
 3311 019c 5F       		.byte	95
 3312 019d 75       		.byte	117
 3313 019e 00       		.byte	0
 3314 019f 1C       		.byte	28
 3315 01a0 30       		.byte	48
 3316 01a1 47       		.byte	71
 3317 01a2 05       		.byte	5
 3318 01a3 66       		.byte	102
 3319 01a4 02       		.byte	2
 3320 01a5 65       		.byte	101
 3321 01a6 06       		.byte	6
 3322 01a7 02       		.byte	2
 3323 01a8 00       		.byte	0
 3324 01a9 000000   		.align	2
 3325              		.type	mf_rlefont_DejaVuSans16_aa_dictionary_offsets, %object
 3326              		.size	mf_rlefont_DejaVuSans16_aa_dictionary_offsets, 280
 3327              	mf_rlefont_DejaVuSans16_aa_dictionary_offsets:
 3328 01ac 0000     		.short	0
 3329 01ae 0100     		.short	1
 3330 01b0 0200     		.short	2
 3331 01b2 0300     		.short	3
 3332 01b4 0400     		.short	4
 3333 01b6 0700     		.short	7
 3334 01b8 0800     		.short	8
 3335 01ba 0900     		.short	9
 3336 01bc 0A00     		.short	10
 3337 01be 0B00     		.short	11
 3338 01c0 0C00     		.short	12
 3339 01c2 0D00     		.short	13
 3340 01c4 0F00     		.short	15
 3341 01c6 1100     		.short	17
 3342 01c8 1300     		.short	19
 3343 01ca 1500     		.short	21
 3344 01cc 1600     		.short	22
 3345 01ce 1700     		.short	23
 3346 01d0 1900     		.short	25
 3347 01d2 1E00     		.short	30
 3348 01d4 2000     		.short	32
 3349 01d6 2300     		.short	35
 3350 01d8 2400     		.short	36
 3351 01da 2500     		.short	37
 3352 01dc 2700     		.short	39
 3353 01de 2900     		.short	41
 3354 01e0 2D00     		.short	45
 3355 01e2 2F00     		.short	47
ARM GAS  C:\Users\joel\AppData\Local\Temp\cc53xt53.s 			page 83


 3356 01e4 3100     		.short	49
 3357 01e6 3400     		.short	52
 3358 01e8 3600     		.short	54
 3359 01ea 3800     		.short	56
 3360 01ec 3A00     		.short	58
 3361 01ee 3C00     		.short	60
 3362 01f0 3E00     		.short	62
 3363 01f2 4000     		.short	64
 3364 01f4 4200     		.short	66
 3365 01f6 4400     		.short	68
 3366 01f8 4600     		.short	70
 3367 01fa 4800     		.short	72
 3368 01fc 4A00     		.short	74
 3369 01fe 4C00     		.short	76
 3370 0200 4D00     		.short	77
 3371 0202 4F00     		.short	79
 3372 0204 5100     		.short	81
 3373 0206 5300     		.short	83
 3374 0208 5500     		.short	85
 3375 020a 5700     		.short	87
 3376 020c 5900     		.short	89
 3377 020e 5A00     		.short	90
 3378 0210 5C00     		.short	92
 3379 0212 5E00     		.short	94
 3380 0214 6000     		.short	96
 3381 0216 6200     		.short	98
 3382 0218 6400     		.short	100
 3383 021a 6600     		.short	102
 3384 021c 6700     		.short	103
 3385 021e 6900     		.short	105
 3386 0220 6B00     		.short	107
 3387 0222 6E00     		.short	110
 3388 0224 6F00     		.short	111
 3389 0226 7100     		.short	113
 3390 0228 7400     		.short	116
 3391 022a 7600     		.short	118
 3392 022c 7800     		.short	120
 3393 022e 7A00     		.short	122
 3394 0230 7B00     		.short	123
 3395 0232 7D00     		.short	125
 3396 0234 8000     		.short	128
 3397 0236 8200     		.short	130
 3398 0238 8400     		.short	132
 3399 023a 8600     		.short	134
 3400 023c 8800     		.short	136
 3401 023e 8A00     		.short	138
 3402 0240 8D00     		.short	141
 3403 0242 8F00     		.short	143
 3404 0244 9100     		.short	145
 3405 0246 9300     		.short	147
 3406 0248 9500     		.short	149
 3407 024a 9700     		.short	151
 3408 024c 9900     		.short	153
 3409 024e 9B00     		.short	155
 3410 0250 9C00     		.short	156
 3411 0252 9D00     		.short	157
 3412 0254 9E00     		.short	158
ARM GAS  C:\Users\joel\AppData\Local\Temp\cc53xt53.s 			page 84


 3413 0256 A000     		.short	160
 3414 0258 A200     		.short	162
 3415 025a A400     		.short	164
 3416 025c A500     		.short	165
 3417 025e A700     		.short	167
 3418 0260 A900     		.short	169
 3419 0262 AB00     		.short	171
 3420 0264 AE00     		.short	174
 3421 0266 B000     		.short	176
 3422 0268 B200     		.short	178
 3423 026a B500     		.short	181
 3424 026c B700     		.short	183
 3425 026e B800     		.short	184
 3426 0270 BA00     		.short	186
 3427 0272 BC00     		.short	188
 3428 0274 BE00     		.short	190
 3429 0276 BF00     		.short	191
 3430 0278 C100     		.short	193
 3431 027a C300     		.short	195
 3432 027c C400     		.short	196
 3433 027e C600     		.short	198
 3434 0280 C800     		.short	200
 3435 0282 C900     		.short	201
 3436 0284 CB00     		.short	203
 3437 0286 CD00     		.short	205
 3438 0288 CF00     		.short	207
 3439 028a D100     		.short	209
 3440 028c D300     		.short	211
 3441 028e D500     		.short	213
 3442 0290 D800     		.short	216
 3443 0292 DB00     		.short	219
 3444 0294 DD00     		.short	221
 3445 0296 F200     		.short	242
 3446 0298 F600     		.short	246
 3447 029a FA00     		.short	250
 3448 029c 0C01     		.short	268
 3449 029e 0E01     		.short	270
 3450 02a0 1201     		.short	274
 3451 02a2 1501     		.short	277
 3452 02a4 3A01     		.short	314
 3453 02a6 3C01     		.short	316
 3454 02a8 5101     		.short	337
 3455 02aa 5401     		.short	340
 3456 02ac 5701     		.short	343
 3457 02ae 6201     		.short	354
 3458 02b0 6501     		.short	357
 3459 02b2 8E01     		.short	398
 3460 02b4 9001     		.short	400
 3461 02b6 9301     		.short	403
 3462 02b8 9601     		.short	406
 3463 02ba 9801     		.short	408
 3464 02bc 9A01     		.short	410
 3465 02be A201     		.short	418
 3466 02c0 A701     		.short	423
 3467 02c2 A901     		.short	425
 3468              		.align	2
 3469              		.type	mf_rlefont_DejaVuSans16_aa_glyph_data_0, %object
ARM GAS  C:\Users\joel\AppData\Local\Temp\cc53xt53.s 			page 85


 3470              		.size	mf_rlefont_DejaVuSans16_aa_glyph_data_0, 2853
 3471              	mf_rlefont_DejaVuSans16_aa_glyph_data_0:
 3472 02c4 05       		.byte	5
 3473 02c5 00       		.byte	0
 3474 02c6 10       		.byte	16
 3475 02c7 06       		.byte	6
 3476 02c8 6A       		.byte	106
 3477 02c9 89       		.byte	-119
 3478 02ca 1F       		.byte	31
 3479 02cb 0E       		.byte	14
 3480 02cc 1F       		.byte	31
 3481 02cd 0D       		.byte	13
 3482 02ce 82       		.byte	-126
 3483 02cf 69       		.byte	105
 3484 02d0 61       		.byte	97
 3485 02d1 10       		.byte	16
 3486 02d2 06       		.byte	6
 3487 02d3 28       		.byte	40
 3488 02d4 ED       		.byte	-19
 3489 02d5 48       		.byte	72
 3490 02d6 A8       		.byte	-88
 3491 02d7 48       		.byte	72
 3492 02d8 A8       		.byte	-88
 3493 02d9 48       		.byte	72
 3494 02da A8       		.byte	-88
 3495 02db 10       		.byte	16
 3496 02dc 0D       		.byte	13
 3497 02dd 18       		.byte	24
 3498 02de 69       		.byte	105
 3499 02df 70       		.byte	112
 3500 02e0 00       		.byte	0
 3501 02e1 2B       		.byte	43
 3502 02e2 03       		.byte	3
 3503 02e3 48       		.byte	72
 3504 02e4 0D       		.byte	13
 3505 02e5 06       		.byte	6
 3506 02e6 00       		.byte	0
 3507 02e7 05       		.byte	5
 3508 02e8 0E       		.byte	14
 3509 02e9 48       		.byte	72
 3510 02ea 4A       		.byte	74
 3511 02eb A2       		.byte	-94
 3512 02ec 70       		.byte	112
 3513 02ed 22       		.byte	34
 3514 02ee 65       		.byte	101
 3515 02ef 2D       		.byte	45
 3516 02f0 88       		.byte	-120
 3517 02f1 0A       		.byte	10
 3518 02f2 09       		.byte	9
 3519 02f3 65       		.byte	101
 3520 02f4 4E       		.byte	78
 3521 02f5 48       		.byte	72
 3522 02f6 40       		.byte	64
 3523 02f7 00       		.byte	0
 3524 02f8 05       		.byte	5
 3525 02f9 0E       		.byte	14
 3526 02fa 48       		.byte	72
ARM GAS  C:\Users\joel\AppData\Local\Temp\cc53xt53.s 			page 86


 3527 02fb 4A       		.byte	74
 3528 02fc A2       		.byte	-94
 3529 02fd 08       		.byte	8
 3530 02fe 0B       		.byte	11
 3531 02ff 21       		.byte	33
 3532 0300 2D       		.byte	45
 3533 0301 5D       		.byte	93
 3534 0302 1D       		.byte	29
 3535 0303 0A       		.byte	10
 3536 0304 09       		.byte	9
 3537 0305 65       		.byte	101
 3538 0306 4E       		.byte	78
 3539 0307 48       		.byte	72
 3540 0308 40       		.byte	64
 3541 0309 00       		.byte	0
 3542 030a 4C       		.byte	76
 3543 030b 48       		.byte	72
 3544 030c 03       		.byte	3
 3545 030d 5D       		.byte	93
 3546 030e 00       		.byte	0
 3547 030f 0A       		.byte	10
 3548 0310 09       		.byte	9
 3549 0311 10       		.byte	16
 3550 0312 0A       		.byte	10
 3551 0313 19       		.byte	25
 3552 0314 99       		.byte	-103
 3553 0315 21       		.byte	33
 3554 0316 30       		.byte	48
 3555 0317 4D       		.byte	77
 3556 0318 5F       		.byte	95
 3557 0319 62       		.byte	98
 3558 031a 7F       		.byte	127
 3559 031b 0A       		.byte	10
 3560 031c 3F       		.byte	63
 3561 031d 5D       		.byte	93
 3562 031e 7B       		.byte	123
 3563 031f 7F       		.byte	127
 3564 0320 7A       		.byte	122
 3565 0321 00       		.byte	0
 3566 0322 2F       		.byte	47
 3567 0323 71       		.byte	113
 3568 0324 00       		.byte	0
 3569 0325 2F       		.byte	47
 3570 0326 05       		.byte	5
 3571 0327 0E       		.byte	14
 3572 0328 08       		.byte	8
 3573 0329 4E       		.byte	78
 3574 032a 82       		.byte	-126
 3575 032b 65       		.byte	101
 3576 032c 07       		.byte	7
 3577 032d 49       		.byte	73
 3578 032e 5B       		.byte	91
 3579 032f 21       		.byte	33
 3580 0330 CC       		.byte	-52
 3581 0331 60       		.byte	96
 3582 0332 7F       		.byte	127
 3583 0333 CC       		.byte	-52
ARM GAS  C:\Users\joel\AppData\Local\Temp\cc53xt53.s 			page 87


 3584 0334 87       		.byte	-121
 3585 0335 7F       		.byte	127
 3586 0336 36       		.byte	54
 3587 0337 01       		.byte	1
 3588 0338 4E       		.byte	78
 3589 0339 70       		.byte	112
 3590 033a 7F       		.byte	127
 3591 033b 52       		.byte	82
 3592 033c 49       		.byte	73
 3593 033d 09       		.byte	9
 3594 033e 01       		.byte	1
 3595 033f 59       		.byte	89
 3596 0340 61       		.byte	97
 3597 0341 10       		.byte	16
 3598 0342 0F       		.byte	15
 3599 0343 28       		.byte	40
 3600 0344 02       		.byte	2
 3601 0345 0B       		.byte	11
 3602 0346 81       		.byte	-127
 3603 0347 02       		.byte	2
 3604 0348 1E       		.byte	30
 3605 0349 0B       		.byte	11
 3606 034a 07       		.byte	7
 3607 034b 19       		.byte	25
 3608 034c 7D       		.byte	125
 3609 034d 01       		.byte	1
 3610 034e 46       		.byte	70
 3611 034f 78       		.byte	120
 3612 0350 3C       		.byte	60
 3613 0351 22       		.byte	34
 3614 0352 7A       		.byte	122
 3615 0353 00       		.byte	0
 3616 0354 87       		.byte	-121
 3617 0355 00       		.byte	0
 3618 0356 30       		.byte	48
 3619 0357 72       		.byte	114
 3620 0358 22       		.byte	34
 3621 0359 7A       		.byte	122
 3622 035a 00       		.byte	0
 3623 035b 87       		.byte	-121
 3624 035c 18       		.byte	24
 3625 035d 5E       		.byte	94
 3626 035e 1D       		.byte	29
 3627 035f 7D       		.byte	125
 3628 0360 01       		.byte	1
 3629 0361 46       		.byte	70
 3630 0362 00       		.byte	0
 3631 0363 03       		.byte	3
 3632 0364 7A       		.byte	122
 3633 0365 22       		.byte	34
 3634 0366 65       		.byte	101
 3635 0367 0B       		.byte	11
 3636 0368 81       		.byte	-127
 3637 0369 A2       		.byte	-94
 3638 036a 75       		.byte	117
 3639 036b 53       		.byte	83
 3640 036c 60       		.byte	96
ARM GAS  C:\Users\joel\AppData\Local\Temp\cc53xt53.s 			page 88


 3641 036d 65       		.byte	101
 3642 036e 0B       		.byte	11
 3643 036f 81       		.byte	-127
 3644 0370 02       		.byte	2
 3645 0371 22       		.byte	34
 3646 0372 30       		.byte	48
 3647 0373 54       		.byte	84
 3648 0374 00       		.byte	0
 3649 0375 7D       		.byte	125
 3650 0376 01       		.byte	1
 3651 0377 46       		.byte	70
 3652 0378 1D       		.byte	29
 3653 0379 09       		.byte	9
 3654 037a 08       		.byte	8
 3655 037b 18       		.byte	24
 3656 037c 7A       		.byte	122
 3657 037d 00       		.byte	0
 3658 037e 87       		.byte	-121
 3659 037f 22       		.byte	34
 3660 0380 51       		.byte	81
 3661 0381 01       		.byte	1
 3662 0382 18       		.byte	24
 3663 0383 7A       		.byte	122
 3664 0384 00       		.byte	0
 3665 0385 87       		.byte	-121
 3666 0386 22       		.byte	34
 3667 0387 55       		.byte	85
 3668 0388 18       		.byte	24
 3669 0389 7D       		.byte	125
 3670 038a 01       		.byte	1
 3671 038b 46       		.byte	70
 3672 038c 19       		.byte	25
 3673 038d 07       		.byte	7
 3674 038e 0B       		.byte	11
 3675 038f 78       		.byte	120
 3676 0390 65       		.byte	101
 3677 0391 0B       		.byte	11
 3678 0392 81       		.byte	-127
 3679 0393 02       		.byte	2
 3680 0394 10       		.byte	16
 3681 0395 0C       		.byte	12
 3682 0396 1B       		.byte	27
 3683 0397 79       		.byte	121
 3684 0398 0F       		.byte	15
 3685 0399 55       		.byte	85
 3686 039a 90       		.byte	-112
 3687 039b 3F       		.byte	63
 3688 039c 01       		.byte	1
 3689 039d 68       		.byte	104
 3690 039e 48       		.byte	72
 3691 039f 7A       		.byte	122
 3692 03a0 20       		.byte	32
 3693 03a1 71       		.byte	113
 3694 03a2 20       		.byte	32
 3695 03a3 06       		.byte	6
 3696 03a4 3E       		.byte	62
 3697 03a5 53       		.byte	83
ARM GAS  C:\Users\joel\AppData\Local\Temp\cc53xt53.s 			page 89


 3698 03a6 7D       		.byte	125
 3699 03a7 0B       		.byte	11
 3700 03a8 01       		.byte	1
 3701 03a9 82       		.byte	-126
 3702 03aa 6F       		.byte	111
 3703 03ab 00       		.byte	0
 3704 03ac 83       		.byte	-125
 3705 03ad 02       		.byte	2
 3706 03ae 18       		.byte	24
 3707 03af 87       		.byte	-121
 3708 03b0 22       		.byte	34
 3709 03b1 39       		.byte	57
 3710 03b2 18       		.byte	24
 3711 03b3 03       		.byte	3
 3712 03b4 72       		.byte	114
 3713 03b5 00       		.byte	0
 3714 03b6 67       		.byte	103
 3715 03b7 22       		.byte	34
 3716 03b8 5D       		.byte	93
 3717 03b9 78       		.byte	120
 3718 03ba 03       		.byte	3
 3719 03bb 40       		.byte	64
 3720 03bc 3D       		.byte	61
 3721 03bd 22       		.byte	34
 3722 03be 55       		.byte	85
 3723 03bf 78       		.byte	120
 3724 03c0 03       		.byte	3
 3725 03c1 0E       		.byte	14
 3726 03c2 38       		.byte	56
 3727 03c3 22       		.byte	34
 3728 03c4 04       		.byte	4
 3729 03c5 66       		.byte	102
 3730 03c6 01       		.byte	1
 3731 03c7 18       		.byte	24
 3732 03c8 3C       		.byte	60
 3733 03c9 63       		.byte	99
 3734 03ca 1D       		.byte	29
 3735 03cb 2C       		.byte	44
 3736 03cc 0D       		.byte	13
 3737 03cd 0A       		.byte	10
 3738 03ce 05       		.byte	5
 3739 03cf 67       		.byte	103
 3740 03d0 07       		.byte	7
 3741 03d1 10       		.byte	16
 3742 03d2 03       		.byte	3
 3743 03d3 96       		.byte	-106
 3744 03d4 10       		.byte	16
 3745 03d5 06       		.byte	6
 3746 03d6 6A       		.byte	106
 3747 03d7 4A       		.byte	74
 3748 03d8 09       		.byte	9
 3749 03d9 53       		.byte	83
 3750 03da 4D       		.byte	77
 3751 03db 01       		.byte	1
 3752 03dc 59       		.byte	89
 3753 03dd 2B       		.byte	43
 3754 03de 04       		.byte	4
ARM GAS  C:\Users\joel\AppData\Local\Temp\cc53xt53.s 			page 90


 3755 03df 53       		.byte	83
 3756 03e0 07       		.byte	7
 3757 03e1 0B       		.byte	11
 3758 03e2 20       		.byte	32
 3759 03e3 3A       		.byte	58
 3760 03e4 20       		.byte	32
 3761 03e5 39       		.byte	57
 3762 03e6 20       		.byte	32
 3763 03e7 7A       		.byte	122
 3764 03e8 20       		.byte	32
 3765 03e9 7A       		.byte	122
 3766 03ea 20       		.byte	32
 3767 03eb 39       		.byte	57
 3768 03ec 20       		.byte	32
 3769 03ed 3A       		.byte	58
 3770 03ee 20       		.byte	32
 3771 03ef 80       		.byte	-128
 3772 03f0 20       		.byte	32
 3773 03f1 2B       		.byte	43
 3774 03f2 04       		.byte	4
 3775 03f3 1A       		.byte	26
 3776 03f4 90       		.byte	-112
 3777 03f5 3E       		.byte	62
 3778 03f6 53       		.byte	83
 3779 03f7 4A       		.byte	74
 3780 03f8 09       		.byte	9
 3781 03f9 10       		.byte	16
 3782 03fa 06       		.byte	6
 3783 03fb 1D       		.byte	29
 3784 03fc 90       		.byte	-112
 3785 03fd 4E       		.byte	78
 3786 03fe 53       		.byte	83
 3787 03ff 58       		.byte	88
 3788 0400 09       		.byte	9
 3789 0401 20       		.byte	32
 3790 0402 04       		.byte	4
 3791 0403 5D       		.byte	93
 3792 0404 20       		.byte	32
 3793 0405 75       		.byte	117
 3794 0406 20       		.byte	32
 3795 0407 56       		.byte	86
 3796 0408 20       		.byte	32
 3797 0409 67       		.byte	103
 3798 040a 20       		.byte	32
 3799 040b 9B       		.byte	-101
 3800 040c 9B       		.byte	-101
 3801 040d 67       		.byte	103
 3802 040e 20       		.byte	32
 3803 040f 56       		.byte	86
 3804 0410 20       		.byte	32
 3805 0411 75       		.byte	117
 3806 0412 53       		.byte	83
 3807 0413 04       		.byte	4
 3808 0414 5D       		.byte	93
 3809 0415 59       		.byte	89
 3810 0416 58       		.byte	88
 3811 0417 09       		.byte	9
ARM GAS  C:\Users\joel\AppData\Local\Temp\cc53xt53.s 			page 91


 3812 0418 1E       		.byte	30
 3813 0419 90       		.byte	-112
 3814 041a 4E       		.byte	78
 3815 041b 10       		.byte	16
 3816 041c 08       		.byte	8
 3817 041d 78       		.byte	120
 3818 041e 6E       		.byte	110
 3819 041f 1F       		.byte	31
 3820 0420 2F       		.byte	47
 3821 0421 3A       		.byte	58
 3822 0422 F6       		.byte	-10
 3823 0423 56       		.byte	86
 3824 0424 48       		.byte	72
 3825 0425 80       		.byte	-128
 3826 0426 0F       		.byte	15
 3827 0427 50       		.byte	80
 3828 0428 82       		.byte	-126
 3829 0429 80       		.byte	-128
 3830 042a 0F       		.byte	15
 3831 042b 50       		.byte	80
 3832 042c 48       		.byte	72
 3833 042d 3A       		.byte	58
 3834 042e F6       		.byte	-10
 3835 042f 56       		.byte	86
 3836 0430 59       		.byte	89
 3837 0431 61       		.byte	97
 3838 0432 10       		.byte	16
 3839 0433 0D       		.byte	13
 3840 0434 1B       		.byte	27
 3841 0435 69       		.byte	105
 3842 0436 91       		.byte	-111
 3843 0437 82       		.byte	-126
 3844 0438 2D       		.byte	45
 3845 0439 82       		.byte	-126
 3846 043a 61       		.byte	97
 3847 043b 99       		.byte	-103
 3848 043c 10       		.byte	16
 3849 043d 05       		.byte	5
 3850 043e 69       		.byte	105
 3851 043f 26       		.byte	38
 3852 0440 26       		.byte	38
 3853 0441 9C       		.byte	-100
 3854 0442 9B       		.byte	-101
 3855 0443 77       		.byte	119
 3856 0444 20       		.byte	32
 3857 0445 5B       		.byte	91
 3858 0446 10       		.byte	16
 3859 0447 06       		.byte	6
 3860 0448 26       		.byte	38
 3861 0449 26       		.byte	38
 3862 044a C0       		.byte	-64
 3863 044b 10       		.byte	16
 3864 044c 05       		.byte	5
 3865 044d 69       		.byte	105
 3866 044e 26       		.byte	38
 3867 044f 26       		.byte	38
 3868 0450 99       		.byte	-103
ARM GAS  C:\Users\joel\AppData\Local\Temp\cc53xt53.s 			page 92


 3869 0451 10       		.byte	16
 3870 0452 05       		.byte	5
 3871 0453 1B       		.byte	27
 3872 0454 51       		.byte	81
 3873 0455 20       		.byte	32
 3874 0456 35       		.byte	53
 3875 0457 20       		.byte	32
 3876 0458 34       		.byte	52
 3877 0459 59       		.byte	89
 3878 045a 64       		.byte	100
 3879 045b 20       		.byte	32
 3880 045c 77       		.byte	119
 3881 045d 20       		.byte	32
 3882 045e 7E       		.byte	126
 3883 045f 9E       		.byte	-98
 3884 0460 7A       		.byte	122
 3885 0461 53       		.byte	83
 3886 0462 7B       		.byte	123
 3887 0463 1A       		.byte	26
 3888 0464 90       		.byte	-112
 3889 0465 06       		.byte	6
 3890 0466 20       		.byte	32
 3891 0467 38       		.byte	56
 3892 0468 53       		.byte	83
 3893 0469 5A       		.byte	90
 3894 046a 20       		.byte	32
 3895 046b 6F       		.byte	111
 3896 046c 20       		.byte	32
 3897 046d 71       		.byte	113
 3898 046e 10       		.byte	16
 3899 046f 0A       		.byte	10
 3900 0470 28       		.byte	40
 3901 0471 65       		.byte	101
 3902 0472 0A       		.byte	10
 3903 0473 7C       		.byte	124
 3904 0474 3F       		.byte	63
 3905 0475 7F       		.byte	127
 3906 0476 58       		.byte	88
 3907 0477 07       		.byte	7
 3908 0478 6B       		.byte	107
 3909 0479 42       		.byte	66
 3910 047a 01       		.byte	1
 3911 047b 21       		.byte	33
 3912 047c 3D       		.byte	61
 3913 047d 1E       		.byte	30
 3914 047e 3A       		.byte	58
 3915 047f 21       		.byte	33
 3916 0480 36       		.byte	54
 3917 0481 1E       		.byte	30
 3918 0482 68       		.byte	104
 3919 0483 21       		.byte	33
 3920 0484 7A       		.byte	122
 3921 0485 8A       		.byte	-118
 3922 0486 23       		.byte	35
 3923 0487 1A       		.byte	26
 3924 0488 8E       		.byte	-114
 3925 0489 7A       		.byte	122
ARM GAS  C:\Users\joel\AppData\Local\Temp\cc53xt53.s 			page 93


 3926 048a 8A       		.byte	-118
 3927 048b 00       		.byte	0
 3928 048c 36       		.byte	54
 3929 048d 1E       		.byte	30
 3930 048e 68       		.byte	104
 3931 048f 21       		.byte	33
 3932 0490 3D       		.byte	61
 3933 0491 1E       		.byte	30
 3934 0492 33       		.byte	51
 3935 0493 21       		.byte	33
 3936 0494 58       		.byte	88
 3937 0495 07       		.byte	7
 3938 0496 6B       		.byte	107
 3939 0497 42       		.byte	66
 3940 0498 01       		.byte	1
 3941 0499 21       		.byte	33
 3942 049a 65       		.byte	101
 3943 049b 0A       		.byte	10
 3944 049c 7C       		.byte	124
 3945 049d 3F       		.byte	63
 3946 049e 10       		.byte	16
 3947 049f 0A       		.byte	10
 3948 04a0 6A       		.byte	106
 3949 04a1 03       		.byte	3
 3950 04a2 09       		.byte	9
 3951 04a3 0E       		.byte	14
 3952 04a4 2F       		.byte	47
 3953 04a5 37       		.byte	55
 3954 04a6 03       		.byte	3
 3955 04a7 89       		.byte	-119
 3956 04a8 91       		.byte	-111
 3957 04a9 59       		.byte	89
 3958 04aa 27       		.byte	39
 3959 04ab 10       		.byte	16
 3960 04ac 0A       		.byte	10
 3961 04ad 28       		.byte	40
 3962 04ae 52       		.byte	82
 3963 04af 0E       		.byte	14
 3964 04b0 55       		.byte	85
 3965 04b1 78       		.byte	120
 3966 04b2 25       		.byte	37
 3967 04b3 0B       		.byte	11
 3968 04b4 03       		.byte	3
 3969 04b5 01       		.byte	1
 3970 04b6 03       		.byte	3
 3971 04b7 75       		.byte	117
 3972 04b8 7F       		.byte	127
 3973 04b9 08       		.byte	8
 3974 04ba 1E       		.byte	30
 3975 04bb 51       		.byte	81
 3976 04bc 20       		.byte	32
 3977 04bd 2B       		.byte	43
 3978 04be 20       		.byte	32
 3979 04bf 3C       		.byte	60
 3980 04c0 9E       		.byte	-98
 3981 04c1 72       		.byte	114
 3982 04c2 82       		.byte	-126
ARM GAS  C:\Users\joel\AppData\Local\Temp\cc53xt53.s 			page 94


 3983 04c3 30       		.byte	48
 3984 04c4 36       		.byte	54
 3985 04c5 82       		.byte	-126
 3986 04c6 65       		.byte	101
 3987 04c7 34       		.byte	52
 3988 04c8 48       		.byte	72
 3989 04c9 65       		.byte	101
 3990 04ca 34       		.byte	52
 3991 04cb 48       		.byte	72
 3992 04cc 30       		.byte	48
 3993 04cd 34       		.byte	52
 3994 04ce 59       		.byte	89
 3995 04cf 55       		.byte	85
 3996 04d0 53       		.byte	83
 3997 04d1 2E       		.byte	46
 3998 04d2 5D       		.byte	93
 3999 04d3 10       		.byte	16
 4000 04d4 0A       		.byte	10
 4001 04d5 28       		.byte	40
 4002 04d6 03       		.byte	3
 4003 04d7 4D       		.byte	77
 4004 04d8 5F       		.byte	95
 4005 04d9 7E       		.byte	126
 4006 04da 7F       		.byte	127
 4007 04db 75       		.byte	117
 4008 04dc 02       		.byte	2
 4009 04dd 30       		.byte	48
 4010 04de 5A       		.byte	90
 4011 04df 08       		.byte	8
 4012 04e0 20       		.byte	32
 4013 04e1 64       		.byte	100
 4014 04e2 20       		.byte	32
 4015 04e3 64       		.byte	100
 4016 04e4 82       		.byte	-126
 4017 04e5 30       		.byte	48
 4018 04e6 5A       		.byte	90
 4019 04e7 08       		.byte	8
 4020 04e8 21       		.byte	33
 4021 04e9 C0       		.byte	-64
 4022 04ea 0B       		.byte	11
 4023 04eb 9E       		.byte	-98
 4024 04ec 47       		.byte	71
 4025 04ed 07       		.byte	7
 4026 04ee 20       		.byte	32
 4027 04ef 85       		.byte	-123
 4028 04f0 20       		.byte	32
 4029 04f1 2B       		.byte	43
 4030 04f2 20       		.byte	32
 4031 04f3 5A       		.byte	90
 4032 04f4 21       		.byte	33
 4033 04f5 7E       		.byte	126
 4034 04f6 01       		.byte	1
 4035 04f7 65       		.byte	101
 4036 04f8 06       		.byte	6
 4037 04f9 72       		.byte	114
 4038 04fa 21       		.byte	33
 4039 04fb 52       		.byte	82
ARM GAS  C:\Users\joel\AppData\Local\Temp\cc53xt53.s 			page 95


 4040 04fc 5F       		.byte	95
 4041 04fd 0A       		.byte	10
 4042 04fe 03       		.byte	3
 4043 04ff 10       		.byte	16
 4044 0500 0A       		.byte	10
 4045 0501 18       		.byte	24
 4046 0502 1B       		.byte	27
 4047 0503 58       		.byte	88
 4048 0504 0F       		.byte	15
 4049 0505 53       		.byte	83
 4050 0506 7E       		.byte	126
 4051 0507 2F       		.byte	47
 4052 0508 3D       		.byte	61
 4053 0509 23       		.byte	35
 4054 050a 82       		.byte	-126
 4055 050b 51       		.byte	81
 4056 050c 01       		.byte	1
 4057 050d 23       		.byte	35
 4058 050e 7F       		.byte	127
 4059 050f 30       		.byte	48
 4060 0510 5B       		.byte	91
 4061 0511 23       		.byte	35
 4062 0512 48       		.byte	72
 4063 0513 6C       		.byte	108
 4064 0514 EC       		.byte	-20
 4065 0515 7F       		.byte	127
 4066 0516 7B       		.byte	123
 4067 0517 24       		.byte	36
 4068 0518 7F       		.byte	127
 4069 0519 39       		.byte	57
 4070 051a 24       		.byte	36
 4071 051b 7F       		.byte	127
 4072 051c 2D       		.byte	45
 4073 051d 53       		.byte	83
 4074 051e 2A       		.byte	42
 4075 051f 10       		.byte	16
 4076 0520 0A       		.byte	10
 4077 0521 6A       		.byte	106
 4078 0522 2E       		.byte	46
 4079 0523 48       		.byte	72
 4080 0524 2A       		.byte	42
 4081 0525 1F       		.byte	31
 4082 0526 5F       		.byte	95
 4083 0527 5F       		.byte	95
 4084 0528 3F       		.byte	63
 4085 0529 48       		.byte	72
 4086 052a 62       		.byte	98
 4087 052b 65       		.byte	101
 4088 052c 07       		.byte	7
 4089 052d 54       		.byte	84
 4090 052e 20       		.byte	32
 4091 052f 80       		.byte	-128
 4092 0530 20       		.byte	32
 4093 0531 9B       		.byte	-101
 4094 0532 9B       		.byte	-101
 4095 0533 80       		.byte	-128
 4096 0534 21       		.byte	33
ARM GAS  C:\Users\joel\AppData\Local\Temp\cc53xt53.s 			page 96


 4097 0535 7E       		.byte	126
 4098 0536 01       		.byte	1
 4099 0537 65       		.byte	101
 4100 0538 07       		.byte	7
 4101 0539 54       		.byte	84
 4102 053a 21       		.byte	33
 4103 053b 52       		.byte	82
 4104 053c 49       		.byte	73
 4105 053d 3F       		.byte	63
 4106 053e 10       		.byte	16
 4107 053f 0A       		.byte	10
 4108 0540 1B       		.byte	27
 4109 0541 4C       		.byte	76
 4110 0542 0F       		.byte	15
 4111 0543 55       		.byte	85
 4112 0544 90       		.byte	-112
 4113 0545 09       		.byte	9
 4114 0546 A2       		.byte	-94
 4115 0547 03       		.byte	3
 4116 0548 0B       		.byte	11
 4117 0549 7F       		.byte	127
 4118 054a 68       		.byte	104
 4119 054b 20       		.byte	32
 4120 054c 62       		.byte	98
 4121 054d 20       		.byte	32
 4122 054e 0D       		.byte	13
 4123 054f 7B       		.byte	123
 4124 0550 0E       		.byte	14
 4125 0551 81       		.byte	-127
 4126 0552 03       		.byte	3
 4127 0553 78       		.byte	120
 4128 0554 25       		.byte	37
 4129 0555 66       		.byte	102
 4130 0556 45       		.byte	69
 4131 0557 0E       		.byte	14
 4132 0558 04       		.byte	4
 4133 0559 18       		.byte	24
 4134 055a 25       		.byte	37
 4135 055b 06       		.byte	6
 4136 055c 1E       		.byte	30
 4137 055d 80       		.byte	-128
 4138 055e 21       		.byte	33
 4139 055f 7A       		.byte	122
 4140 0560 8A       		.byte	-118
 4141 0561 00       		.byte	0
 4142 0562 0B       		.byte	11
 4143 0563 01       		.byte	1
 4144 0564 8A       		.byte	-118
 4145 0565 00       		.byte	0
 4146 0566 06       		.byte	6
 4147 0567 06       		.byte	6
 4148 0568 1E       		.byte	30
 4149 0569 80       		.byte	-128
 4150 056a 7F       		.byte	127
 4151 056b 75       		.byte	117
 4152 056c 45       		.byte	69
 4153 056d 0E       		.byte	14
ARM GAS  C:\Users\joel\AppData\Local\Temp\cc53xt53.s 			page 97


 4154 056e 04       		.byte	4
 4155 056f 21       		.byte	33
 4156 0570 30       		.byte	48
 4157 0571 0A       		.byte	10
 4158 0572 4B       		.byte	75
 4159 0573 34       		.byte	52
 4160 0574 10       		.byte	16
 4161 0575 0A       		.byte	10
 4162 0576 6E       		.byte	110
 4163 0577 27       		.byte	39
 4164 0578 20       		.byte	32
 4165 0579 3D       		.byte	61
 4166 057a 20       		.byte	32
 4167 057b 71       		.byte	113
 4168 057c 53       		.byte	83
 4169 057d 3C       		.byte	60
 4170 057e 20       		.byte	32
 4171 057f 7E       		.byte	126
 4172 0580 53       		.byte	83
 4173 0581 51       		.byte	81
 4174 0582 20       		.byte	32
 4175 0583 6C       		.byte	108
 4176 0584 9E       		.byte	-98
 4177 0585 7A       		.byte	122
 4178 0586 22       		.byte	34
 4179 0587 31       		.byte	49
 4180 0588 1D       		.byte	29
 4181 0589 39       		.byte	57
 4182 058a 53       		.byte	83
 4183 058b 7B       		.byte	123
 4184 058c 20       		.byte	32
 4185 058d 34       		.byte	52
 4186 058e 10       		.byte	16
 4187 058f 0A       		.byte	10
 4188 0590 6A       		.byte	106
 4189 0591 60       		.byte	96
 4190 0592 7C       		.byte	124
 4191 0593 75       		.byte	117
 4192 0594 90       		.byte	-112
 4193 0595 0C       		.byte	12
 4194 0596 04       		.byte	4
 4195 0597 6B       		.byte	107
 4196 0598 5A       		.byte	90
 4197 0599 09       		.byte	9
 4198 059a 21       		.byte	33
 4199 059b 38       		.byte	56
 4200 059c 1E       		.byte	30
 4201 059d 64       		.byte	100
 4202 059e 21       		.byte	33
 4203 059f 38       		.byte	56
 4204 05a0 1E       		.byte	30
 4205 05a1 64       		.byte	100
 4206 05a2 21       		.byte	33
 4207 05a3 84       		.byte	-124
 4208 05a4 04       		.byte	4
 4209 05a5 6B       		.byte	107
 4210 05a6 04       		.byte	4
