ARM GAS  C:\Users\joel\AppData\Local\Temp\ccj9bunu.s 			page 1


   1              		.syntax unified
   2              		.cpu cortex-m3
   3              		.fpu softvfp
   4              		.eabi_attribute 20, 1
   5              		.eabi_attribute 21, 1
   6              		.eabi_attribute 23, 3
   7              		.eabi_attribute 24, 1
   8              		.eabi_attribute 25, 1
   9              		.eabi_attribute 26, 1
  10              		.eabi_attribute 30, 6
  11              		.eabi_attribute 34, 1
  12              		.eabi_attribute 18, 4
  13              		.thumb
  14              		.file	"main.c"
  15              		.text
  16              	.Ltext0:
  17              		.cfi_sections	.debug_frame
  18              		.section	.rodata
  19              		.align	2
  20              	.LC0:
  21 0000 44656A61 		.ascii	"DejaVuSans16_aa\000"
  21      56755361 
  21      6E733136 
  21      5F616100 
  22              		.align	2
  23              	.LC1:
  24 0010 44656A61 		.ascii	"DejaVuSans32_aa\000"
  24      56755361 
  24      6E733332 
  24      5F616100 
  25              		.align	2
  26              	.LC2:
  27 0020 75676678 		.ascii	"ugfx_150x50_white.bmp\000"
  27      5F313530 
  27      7835305F 
  27      77686974 
  27      652E626D 
  28 0036 0000     		.align	2
  29              	.LC3:
  30 0038 726200   		.ascii	"rb\000"
  31 003b 00       		.align	2
  32              	.LC4:
  33 003c 48656C6C 		.ascii	"Hello PSoC 5 LP!\000"
  33      6F205053 
  33      6F432035 
  33      204C5021 
  33      00
  34 004d 000000   		.align	2
  35              	.LC5:
  36 0050 4B65726E 		.ascii	"Kerning: AVAVIPWA\000"
  36      696E673A 
  36      20415641 
  36      56495057 
  36      4100
  37 0062 0000     		.section	.text.main,"ax",%progbits
  38              		.align	2
  39              		.global	main
ARM GAS  C:\Users\joel\AppData\Local\Temp\ccj9bunu.s 			page 2


  40              		.thumb
  41              		.thumb_func
  42              		.type	main, %function
  43              	main:
  44              	.LFB63:
  45              		.file 1 ".\\main.c"
   1:.\main.c      **** #include <device.h>
   2:.\main.c      **** #include "gfx.h"
   3:.\main.c      **** 
   4:.\main.c      **** int main()
   5:.\main.c      **** {
  46              		.loc 1 5 0
  47              		.cfi_startproc
  48              		@ args = 0, pretend = 0, frame = 40
  49              		@ frame_needed = 1, uses_anonymous_args = 0
  50 0000 90B5     		push	{r4, r7, lr}
  51              		.cfi_def_cfa_offset 12
  52              		.cfi_offset 4, -12
  53              		.cfi_offset 7, -8
  54              		.cfi_offset 14, -4
  55 0002 91B0     		sub	sp, sp, #68
  56              		.cfi_def_cfa_offset 80
  57 0004 06AF     		add	r7, sp, #24
  58              		.cfi_def_cfa 7, 56
   6:.\main.c      ****     font_t font1, font2;
   7:.\main.c      ****     coord_t swidth, sheight;
   8:.\main.c      ****     gdispImage image;
   9:.\main.c      **** 
  10:.\main.c      ****     // Initialize the uGFX library
  11:.\main.c      ****     gfxInit();
  59              		.loc 1 11 0
  60 0006 FFF7FEFF 		bl	gfxInit
  12:.\main.c      ****     
  13:.\main.c      ****     // Change the display orientation
  14:.\main.c      ****     gdispSetOrientation(GDISP_ROTATE_LANDSCAPE);
  61              		.loc 1 14 0
  62 000a 484B     		ldr	r3, .L3
  63 000c 1B68     		ldr	r3, [r3]
  64 000e 1846     		mov	r0, r3
  65 0010 0121     		movs	r1, #1
  66 0012 40F2E932 		movw	r2, #1001
  67 0016 FFF7FEFF 		bl	gdispGControl
  15:.\main.c      ****     
  16:.\main.c      ****     // Some misc stuff
  17:.\main.c      ****     swidth = gdispGetWidth();
  68              		.loc 1 17 0
  69 001a 444B     		ldr	r3, .L3
  70 001c 1B68     		ldr	r3, [r3]
  71 001e 1846     		mov	r0, r3
  72 0020 FFF7FEFF 		bl	gdispGGetWidth
  73 0024 0346     		mov	r3, r0
  74 0026 FB84     		strh	r3, [r7, #38]	@ movhi
  18:.\main.c      ****     sheight = gdispGetHeight();
  75              		.loc 1 18 0
  76 0028 404B     		ldr	r3, .L3
  77 002a 1B68     		ldr	r3, [r3]
  78 002c 1846     		mov	r0, r3
ARM GAS  C:\Users\joel\AppData\Local\Temp\ccj9bunu.s 			page 3


  79 002e FFF7FEFF 		bl	gdispGGetHeight
  80 0032 0346     		mov	r3, r0
  81 0034 BB84     		strh	r3, [r7, #36]	@ movhi
  19:.\main.c      **** 
  20:.\main.c      ****     // Prepare the resources
  21:.\main.c      ****     font1 = gdispOpenFont("DejaVuSans16_aa");
  82              		.loc 1 21 0
  83 0036 3E48     		ldr	r0, .L3+4
  84 0038 FFF7FEFF 		bl	gdispOpenFont
  85 003c 3862     		str	r0, [r7, #32]
  22:.\main.c      ****     font2 = gdispOpenFont("DejaVuSans32_aa");
  86              		.loc 1 22 0
  87 003e 3D48     		ldr	r0, .L3+8
  88 0040 FFF7FEFF 		bl	gdispOpenFont
  89 0044 F861     		str	r0, [r7, #28]
  23:.\main.c      ****     gdispImageOpenFile(&image, "ugfx_150x50_white.bmp");
  90              		.loc 1 23 0
  91 0046 3C48     		ldr	r0, .L3+12
  92 0048 3C49     		ldr	r1, .L3+16
  93 004a FFF7FEFF 		bl	gfileOpen
  94 004e 0246     		mov	r2, r0
  95 0050 3B1D     		adds	r3, r7, #4
  96 0052 1846     		mov	r0, r3
  97 0054 1146     		mov	r1, r2
  98 0056 FFF7FEFF 		bl	gdispImageOpenGFile
  24:.\main.c      ****     
  25:.\main.c      ****     // Write some text
  26:.\main.c      ****     gdispFillStringBox(5, 5, swidth, 50, "Hello PSoC 5 LP!", font1, Black, White, justifyLeft);
  99              		.loc 1 26 0
 100 005a 344B     		ldr	r3, .L3
 101 005c 1A68     		ldr	r2, [r3]
 102 005e B7F92640 		ldrsh	r4, [r7, #38]
 103 0062 3223     		movs	r3, #50
 104 0064 0093     		str	r3, [sp]
 105 0066 364B     		ldr	r3, .L3+20
 106 0068 0193     		str	r3, [sp, #4]
 107 006a 3B6A     		ldr	r3, [r7, #32]
 108 006c 0293     		str	r3, [sp, #8]
 109 006e 0023     		movs	r3, #0
 110 0070 0393     		str	r3, [sp, #12]
 111 0072 4FF6FF73 		movw	r3, #65535
 112 0076 0493     		str	r3, [sp, #16]
 113 0078 0023     		movs	r3, #0
 114 007a 0593     		str	r3, [sp, #20]
 115 007c 1046     		mov	r0, r2
 116 007e 0521     		movs	r1, #5
 117 0080 0522     		movs	r2, #5
 118 0082 2346     		mov	r3, r4
 119 0084 FFF7FEFF 		bl	gdispGFillStringBox
  27:.\main.c      ****     gdispFillStringBox(5, 55, swidth, 50, "Kerning: AVAVIPWA", font2, Black, White, justifyLeft);
 120              		.loc 1 27 0
 121 0088 284B     		ldr	r3, .L3
 122 008a 1A68     		ldr	r2, [r3]
 123 008c B7F92640 		ldrsh	r4, [r7, #38]
 124 0090 3223     		movs	r3, #50
 125 0092 0093     		str	r3, [sp]
 126 0094 2B4B     		ldr	r3, .L3+24
ARM GAS  C:\Users\joel\AppData\Local\Temp\ccj9bunu.s 			page 4


 127 0096 0193     		str	r3, [sp, #4]
 128 0098 FB69     		ldr	r3, [r7, #28]
 129 009a 0293     		str	r3, [sp, #8]
 130 009c 0023     		movs	r3, #0
 131 009e 0393     		str	r3, [sp, #12]
 132 00a0 4FF6FF73 		movw	r3, #65535
 133 00a4 0493     		str	r3, [sp, #16]
 134 00a6 0023     		movs	r3, #0
 135 00a8 0593     		str	r3, [sp, #20]
 136 00aa 1046     		mov	r0, r2
 137 00ac 0521     		movs	r1, #5
 138 00ae 3722     		movs	r2, #55
 139 00b0 2346     		mov	r3, r4
 140 00b2 FFF7FEFF 		bl	gdispGFillStringBox
  28:.\main.c      ****     
  29:.\main.c      ****     // Draw some image
  30:.\main.c      ****     gdispImageDraw(&image, 5, 180, 150, 50, 0, 0);
 141              		.loc 1 30 0
 142 00b6 1D4B     		ldr	r3, .L3
 143 00b8 1968     		ldr	r1, [r3]
 144 00ba 3A1D     		adds	r2, r7, #4
 145 00bc 9623     		movs	r3, #150
 146 00be 0093     		str	r3, [sp]
 147 00c0 3223     		movs	r3, #50
 148 00c2 0193     		str	r3, [sp, #4]
 149 00c4 0023     		movs	r3, #0
 150 00c6 0293     		str	r3, [sp, #8]
 151 00c8 0023     		movs	r3, #0
 152 00ca 0393     		str	r3, [sp, #12]
 153 00cc 0846     		mov	r0, r1
 154 00ce 1146     		mov	r1, r2
 155 00d0 0522     		movs	r2, #5
 156 00d2 B423     		movs	r3, #180
 157 00d4 FFF7FEFF 		bl	gdispGImageDraw
  31:.\main.c      ****     
  32:.\main.c      ****     // Draw some random shapes
  33:.\main.c      ****     gdispFillArea(180, 120, 40, 30, Red);
 158              		.loc 1 33 0
 159 00d8 144B     		ldr	r3, .L3
 160 00da 1A68     		ldr	r2, [r3]
 161 00dc 1E23     		movs	r3, #30
 162 00de 0093     		str	r3, [sp]
 163 00e0 4FF47843 		mov	r3, #63488
 164 00e4 0193     		str	r3, [sp, #4]
 165 00e6 1046     		mov	r0, r2
 166 00e8 B421     		movs	r1, #180
 167 00ea 7822     		movs	r2, #120
 168 00ec 2823     		movs	r3, #40
 169 00ee FFF7FEFF 		bl	gdispGFillArea
  34:.\main.c      ****     gdispFillArea(210, 160, 90, 50, Lime);
 170              		.loc 1 34 0
 171 00f2 0E4B     		ldr	r3, .L3
 172 00f4 1A68     		ldr	r2, [r3]
 173 00f6 3223     		movs	r3, #50
 174 00f8 0093     		str	r3, [sp]
 175 00fa 4FF4FC63 		mov	r3, #2016
 176 00fe 0193     		str	r3, [sp, #4]
ARM GAS  C:\Users\joel\AppData\Local\Temp\ccj9bunu.s 			page 5


 177 0100 1046     		mov	r0, r2
 178 0102 D221     		movs	r1, #210
 179 0104 A022     		movs	r2, #160
 180 0106 5A23     		movs	r3, #90
 181 0108 FFF7FEFF 		bl	gdispGFillArea
  35:.\main.c      ****     gdispDrawCircle(225, 155, 25, Green);
 182              		.loc 1 35 0
 183 010c 074B     		ldr	r3, .L3
 184 010e 1A68     		ldr	r2, [r3]
 185 0110 4FF48063 		mov	r3, #1024
 186 0114 0093     		str	r3, [sp]
 187 0116 1046     		mov	r0, r2
 188 0118 E121     		movs	r1, #225
 189 011a 9B22     		movs	r2, #155
 190 011c 1923     		movs	r3, #25
 191 011e FFF7FEFF 		bl	gdispGDrawCircle
 192              	.L2:
  36:.\main.c      ****     
  37:.\main.c      ****     // Get bored
  38:.\main.c      ****     while (1) {
  39:.\main.c      ****         gfxSleepMilliseconds(100);
 193              		.loc 1 39 0 discriminator 1
 194 0122 6420     		movs	r0, #100
 195 0124 FFF7FEFF 		bl	gfxSleepMilliseconds
  40:.\main.c      ****     }
 196              		.loc 1 40 0 discriminator 1
 197 0128 FBE7     		b	.L2
 198              	.L4:
 199 012a 00BF     		.align	2
 200              	.L3:
 201 012c 00000000 		.word	GDISP
 202 0130 00000000 		.word	.LC0
 203 0134 10000000 		.word	.LC1
 204 0138 20000000 		.word	.LC2
 205 013c 38000000 		.word	.LC3
 206 0140 3C000000 		.word	.LC4
 207 0144 50000000 		.word	.LC5
 208              		.cfi_endproc
 209              	.LFE63:
 210              		.size	main, .-main
 211              		.text
 212              	.Letext0:
 213              		.file 2 "c:\\program files (x86)\\cypress\\psoc creator\\3.3\\psoc creator\\import\\gnu\\arm\\4.9.
 214              		.file 3 "c:\\program files (x86)\\cypress\\psoc creator\\3.3\\psoc creator\\import\\gnu\\arm\\4.9.
 215              		.file 4 "..\\ugfx_2.6/src/gfile/gfile.h"
 216              		.file 5 "..\\ugfx_2.6/src/gdisp/gdisp.h"
 217              		.file 6 "..\\ugfx_2.6/src/gdisp/gdisp_colors.h"
 218              		.file 7 "..\\ugfx_2.6/src/gdisp/gdisp_image.h"
 219              		.file 8 "Generated_Source\\PSoC5/core_cm3.h"